(dp1
S'avg_precision'
p2
(lp3
I1
aI1
aI123
aI123
aI1
aI1
aI123
aI123
aI1
aI123
aI123
aI123
aI123
aI123
aI1
aI1
aI123
aI123
aI1
aI1
aI1
aI1
aI123
aI123
aI1
aI1
aI1
aI1
aI1
aI123
aI123
aI123
aI123
aI123
aI123
aI123
aI1
aI123
aI123
aI123
aI123
aI123
aI1
aI1
aI123
aI1
aI1
aI1
aI1
aI123
aI123
aI123
aI1
aI1
aI123
aI1
aI1
aI1
aI1
aI1
aI123
aI123
aI123
aI123
aI123
aI123
aI123
aI123
aI1
aI1
aI1
aI1
aI1
aI1
aI1
aI1
aI1
aI123
aI1
aI123
aI1
aI1
aI123
aI123
aI123
aI123
aI1
aI1
aI123
aI123
aI1
aI1
aI1
aI123
aI1
aI1
aI1
aI123
aI123
aI123
aI123
aI123
aI123
aI123
aI1
aI1
aI1
aI123
aI123
aI123
aI123
aI1
aI1
aI123
aI123
aI1
aI1
aI1
aI1
aI1
aI1
aI1
aI123
aI123
aI1
aI1
aI1
aI1
aI1
aI123
aI1
aI1
aI1
aI1
aI1
aI1
aI123
aI123
aI123
aI123
aI123
aI123
aI123
aI123
aI123
aI123
aI1
aI1
aI123
aI123
aI123
aI123
aI1
aI123
aI123
aI123
aI123
aI123
aI123
aI123
aI123
aI123
aI123
aI123
aI123
aI123
aI123
aI123
aI123
aI123
aI123
aI123
aI123
aI123
aI123
aI123
aI123
aI123
aI123
aI123
aI123
aI123
aI123
aI123
aI123
aI123
aI123
aI123
aI123
aI123
aI1
aI1
aI123
aI123
aI123
aI123
aI123
aI1
aI123
aI123
asS'rewards'
p4
(lp5
cnumpy.core.multiarray
scalar
p6
(cnumpy
dtype
p7
(S'f8'
I0
I1
tRp8
(I3
S'<'
NNNI-1
I-1
I0
tbS'\x00\x00\x00\x00\x00\x00\x00\x00'
tRp9
ag6
(g8
S'\x00\x00\x00\x00\x00\x00\x00\x00'
tRp10
ag6
(g8
S'\x00\x00\x00\x00\x00\x00\x00\x00'
tRp11
ag6
(g8
S'GX\xeei\x84\xe5\xde?'
tRp12
ag6
(g8
S'\x00\x00\x00\x00\x00\x00\x00\x00'
tRp13
ag6
(g8
S'\x00\x00\x00\x00\x00\x00\x00\x00'
tRp14
ag6
(g8
S'\x00\x00\x00\x00\x00\x00\x00\x00'
tRp15
ag6
(g8
S'\x84\x10B\x08!\x84\xc0?'
tRp16
ag6
(g8
S'\x00\x00\x00\x00\x00\x00\x00\x00'
tRp17
ag6
(g8
S'\xab\xaa\xaa\xaa\xaa\xaa\xea?'
tRp18
ag6
(g8
S'=\xb6"h8\xa9\xeb?'
tRp19
ag6
(g8
S'\x9a\x99\x99\x99\x99\x99\xf1?'
tRp20
ag6
(g8
S'\x00\x00\x00\x00\x00\x00\x00\x00'
tRp21
ag6
(g8
S'\x1c\xc7q\x1c\xc7q\xdc?'
tRp22
ag6
(g8
S'\x00\x00\x00\x00\x00\x00\x00\x00'
tRp23
ag6
(g8
S'\x00\x00\x00\x00\x00\x00\x00\x00'
tRp24
ag6
(g8
S'\xf0\xc1\x07\x1f|\xf0\xf1?'
tRp25
ag6
(g8
S'\x00\x00\x00\x00\x00\x00\x00\x00'
tRp26
ag6
(g8
S'\x00\x00\x00\x00\x00\x00\x00\x00'
tRp27
ag6
(g8
S'\x00\x00\x00\x00\x00\x00\x00\x00'
tRp28
ag6
(g8
S'\x00\x00\x00\x00\x00\x00\x00\x00'
tRp29
ag6
(g8
S'\x00\x00\x00\x00\x00\x00\x00\x00'
tRp30
ag6
(g8
S'\x1f|\xf0\xc1\x07\x1f\xfc?'
tRp31
ag6
(g8
S'\x00\x00\x00\x00\x00\x00\x00\x00'
tRp32
ag6
(g8
S'\x00\x00\x00\x00\x00\x00\x00\x00'
tRp33
ag6
(g8
S'\x00\x00\x00\x00\x00\x00\x00\x00'
tRp34
ag6
(g8
S'\x00\x00\x00\x00\x00\x00\x00\x00'
tRp35
ag6
(g8
S'\x00\x00\x00\x00\x00\x00\x00\x00'
tRp36
ag6
(g8
S'\x00\x00\x00\x00\x00\x00\x00\x00'
tRp37
ag6
(g8
S'\x00\x00\x00\x00\x00\x00\x00\x00'
tRp38
ag6
(g8
S'\x14\x14\x14\x14\x14\x14\xc4?'
tRp39
ag6
(g8
S'\x00\x00\x00\x00\x00\x80\xfa?'
tRp40
ag6
(g8
S'\x9fZX\xe9\xa9\x85\xf5?'
tRp41
ag6
(g8
S'fffff\xe6+@'
tRp42
ag6
(g8
S'\x8c1\xc6\x18c\x0c0@'
tRp43
ag6
(g8
S'\xbe\x84\xf6\x12\xdaK%@'
tRp44
ag6
(g8
S'\x00\x00\x00\x00\x00\x00\x00\x00'
tRp45
ag6
(g8
S'SJ)\xa5\x94R\xfe?'
tRp46
ag6
(g8
S'\x00\x00\x00\x00\x00\x00\x00\x00'
tRp47
ag6
(g8
S'I\x92$I\x92$#@'
tRp48
ag6
(g8
S'\x8bv\xa6\xf4\xfa\x8b\xd3?'
tRp49
ag6
(g8
S'\x96{\x1aa\xb9\xa7\xe1?'
tRp50
ag6
(g8
S'\x00\x00\x00\x00\x00\x00\x00\x00'
tRp51
ag6
(g8
S'\x00\x00\x00\x00\x00\x00\x00\x00'
tRp52
ag6
(g8
S'E>\xeb\x06S\xe4\x03@'
tRp53
ag6
(g8
S'\x00\x00\x00\x00\x00\x00\x00\x00'
tRp54
ag6
(g8
S'\x00\x00\x00\x00\x00\x00\x00\x00'
tRp55
ag6
(g8
S'\x00\x00\x00\x00\x00\x00\x00\x00'
tRp56
ag6
(g8
S'\x00\x00\x00\x00\x00\x00\x00\x00'
tRp57
ag6
(g8
S'\x86\xa6;\xd8o\xb5\xe1?'
tRp58
ag6
(g8
S'}\xd6\r\xa6\xc8g\x1b@'
tRp59
ag6
(g8
S'\xa0Q\xe2g\x94\xf8\x15@'
tRp60
ag6
(g8
S'\x00\x00\x00\x00\x00\x00\x00\x00'
tRp61
ag6
(g8
S'\x00\x00\x00\x00\x00\x00\x00\x00'
tRp62
ag6
(g8
S'\x00\x00\x00\x00\x00\x00\x00\x00'
tRp63
ag6
(g8
S'\x00\x00\x00\x00\x00\x00\x00\x00'
tRp64
ag6
(g8
S'\x00\x00\x00\x00\x00\x00\x00\x00'
tRp65
ag6
(g8
S'\x00\x00\x00\x00\x00\x00\x00\x00'
tRp66
ag6
(g8
S'\x00\x00\x00\x00\x00\x00\x00\x00'
tRp67
ag6
(g8
S'\x00\x00\x00\x00\x00\x00\x00\x00'
tRp68
ag6
(g8
S'\x1cL\x91\xcf\xba\xc1\xc4?'
tRp69
ag6
(g8
S'\x0b\x9b\x03\x89V\xd8\xbc?'
tRp70
ag6
(g8
S'y\r\xe55\x94\xd7\xd0?'
tRp71
ag6
(g8
S'\x00\x00\x00\x00\x00\x00\x00\x00'
tRp72
ag6
(g8
S'\x00\x00\x00\x00\x00\x00\xe7?'
tRp73
ag6
(g8
S'\x00\x00\x00\x00\x00\x00\x00\x00'
tRp74
ag6
(g8
S'v\x83)\xf2Y7\xd8?'
tRp75
ag6
(g8
S'\x00\x00\x00\x00\x00\x00\x00\x00'
tRp76
ag6
(g8
S'\x00\x00\x00\x00\x00\x00\x00\x00'
tRp77
ag6
(g8
S'\x00\x00\x00\x00\x00\x00\x00\x00'
tRp78
ag6
(g8
S'\x00\x00\x00\x00\x00\x00\x00\x00'
tRp79
ag6
(g8
S'\x00\x00\x00\x00\x00\x00\x00\x00'
tRp80
ag6
(g8
S'\x00\x00\x00\x00\x00\x00\x00\x00'
tRp81
ag6
(g8
S'\x00\x00\x00\x00\x00\x00\x00\x00'
tRp82
ag6
(g8
S'\x00\x00\x00\x00\x00\x00\x00\x00'
tRp83
ag6
(g8
S'\x00\x00\x00\x00\x00\x00\x00\x00'
tRp84
ag6
(g8
S'\x00\x00\x00\x00\x00\x00\x00\x00'
tRp85
ag6
(g8
S'\x1d\xd4A\x1d\xd4A\x9d?'
tRp86
ag6
(g8
S'\x00\x00\x00\x00\x00\x00\x00\x00'
tRp87
ag6
(g8
S'\x9fu\x83)\xf2Y\xd7?'
tRp88
ag6
(g8
S'\x00\x00\x00\x00\x00\x00\x00\x00'
tRp89
ag6
(g8
S'\x00\x00\x00\x00\x00\x00\x00\x00'
tRp90
ag6
(g8
S'\xafM\x94\xec\xdaD5@'
tRp91
ag6
(g8
S'7\x98"\x9fu\x831@'
tRp92
ag6
(g8
S'\x00\x00\x00\x00\x00\x802@'
tRp93
ag6
(g8
S'\xdd`\x8a|\xd6\x8d4@'
tRp94
ag6
(g8
S'\x00\x00\x00\x00\x00\x00\x00\x00'
tRp95
ag6
(g8
S'\x00\x00\x00\x00\x00\x00\x00\x00'
tRp96
ag6
(g8
S'\r\xe55\x94\xd7P\xce?'
tRp97
ag6
(g8
S'y\r\xe55\x94\xd7\xb0?'
tRp98
ag6
(g8
S'\x00\x00\x00\x00\x00\x00\x00\x00'
tRp99
ag6
(g8
S'\x00\x00\x00\x00\x00\x00\x00\x00'
tRp100
ag6
(g8
S'\x00\x00\x00\x00\x00\x00\x00\x00'
tRp101
ag6
(g8
S'\x00\x00\x00\x00\x00\x00\x00\x00'
tRp102
ag6
(g8
S'\x00\x00\x00\x00\x00\x00\x00\x00'
tRp103
ag6
(g8
S'\x00\x00\x00\x00\x00\x00\x00\x00'
tRp104
ag6
(g8
S'\x00\x00\x00\x00\x00\x00\x00\x00'
tRp105
ag6
(g8
S'\x07:m\xa0\xd3\x06"@'
tRp106
ag6
(g8
S'(\xaf\xa1\xbc\x86\xf2\x16@'
tRp107
ag6
(g8
S'\x90\xe0>\x82\xfb\x08"@'
tRp108
ag6
(g8
S'\x1b\xcak(\xaf!2@'
tRp109
ag6
(g8
S'\xbd\x86\xf2\x1a\xcak"@'
tRp110
ag6
(g8
S'\xd8P^Cy\r:@'
tRp111
ag6
(g8
S'\xf1\xf0\xf0\xf0\xf0\xf0\xe0?'
tRp112
ag6
(g8
S'\x00\x00\x00\x00\x00\x00\x00\x00'
tRp113
ag6
(g8
S'\x00\x00\x00\x00\x00\x00\x00\x00'
tRp114
ag6
(g8
S'\x00\x00\x00\x00\x00\x00\x00\x00'
tRp115
ag6
(g8
S'\x00\x00\x00\x00\x00\x00\x00\x00'
tRp116
ag6
(g8
S'Q^Cy\r\xe5\xc5?'
tRp117
ag6
(g8
S'\xbd\x86\xf2\x1a\xcak\xd8?'
tRp118
ag6
(g8
S'\x00\x00\x00\x00\x00\x00\x00\x00'
tRp119
ag6
(g8
S'\x00\x00\x00\x00\x00\x00\x00\x00'
tRp120
ag6
(g8
S'\x00\x00\x00\x00\x00\x00\x00\x00'
tRp121
ag6
(g8
S'.\xdf\xf2-\xdf\xf2\xed?'
tRp122
ag6
(g8
S'y\r\xe55\x94\xd7\xb0?'
tRp123
ag6
(g8
S'\x00\x00\x00\x00\x00\x00\x00\x00'
tRp124
ag6
(g8
S'\x00\x00\x00\x00\x00\x00\x00\x00'
tRp125
ag6
(g8
S'\x00\x00\x00\x00\x00\x00\x00\x00'
tRp126
ag6
(g8
S'\x00\x00\x00\x00\x00\x00\x00\x00'
tRp127
ag6
(g8
S'\x00\x00\x00\x00\x00\x00\x00\x00'
tRp128
ag6
(g8
S'\x00\x00\x00\x00\x00\x00\x00\x00'
tRp129
ag6
(g8
S'\x00\x00\x00\x00\x00\x00\x00\x00'
tRp130
ag6
(g8
S'^Cy\r\xe55 @'
tRp131
ag6
(g8
S'Cy\r\xe55\x14"@'
tRp132
ag6
(g8
S'\x00\x00\x00\x00\x00\x00\x00\x00'
tRp133
ag6
(g8
S'\x00\x00\x00\x00\x00\x00\x00\x00'
tRp134
ag6
(g8
S'\x00\x00\x00\x00\x00\x00\x00\x00'
tRp135
ag6
(g8
S'\x00\x00\x00\x00\x00\x00\x00\x00'
tRp136
ag6
(g8
S'\x00\x00\x00\x00\x00\x00\x00\x00'
tRp137
ag6
(g8
S'\xf7\x12\xdaKh/\x19@'
tRp138
ag6
(g8
S'\x00\x00\x00\x00\x00\x00\x00\x00'
tRp139
ag6
(g8
S'\x00\x00\x00\x00\x00\x00\x00\x00'
tRp140
ag6
(g8
S'\x00\x00\x00\x00\x00\x00\x00\x00'
tRp141
ag6
(g8
S'\x00\x00\x00\x00\x00\x00\x00\x00'
tRp142
ag6
(g8
S'\x00\x00\x00\x00\x00\x00\x00\x00'
tRp143
ag6
(g8
S'\x00\x00\x00\x00\x00\x00\x00\x00'
tRp144
ag6
(g8
S'\xe5\x17K~\xb1\xe4\xd7?'
tRp145
ag6
(g8
S'(\xaf\xa1\xbc\x86\xf2\xca?'
tRp146
ag6
(g8
S'\x00\x00\x00\x00\x00\x00\x00\x00'
tRp147
ag6
(g8
S'\x00\x00\x00\x00\x00\x00\x00\x00'
tRp148
ag6
(g8
S'\xec\x1dS\x03{\xc7\xd4?'
tRp149
ag6
(g8
S'\x00\x00\x00\x00\x00\x00\x00\x00'
tRp150
ag6
(g8
S'\x00\x00\x00\x00\x00\x00\x00\x00'
tRp151
ag6
(g8
S'(\xaf\xa1\xbc\x86\xf2\xba?'
tRp152
ag6
(g8
S'\x00\x00\x00\x00\x00\x00\x00\x00'
tRp153
ag6
(g8
S'(\xaf\xa1\xbc\x86\xf2\xaa?'
tRp154
ag6
(g8
S'\x00\x00\x00\x00\x00\x00\x00\x00'
tRp155
ag6
(g8
S'\x00\x00\x00\x00\x00\x00\x00\x00'
tRp156
ag6
(g8
S'/\xba\xe8\xa2\x8b\xae%@'
tRp157
ag6
(g8
S'\xcak(\xaf\xa1\xbc @'
tRp158
ag6
(g8
S'\xd8P^Cy\r\x1e@'
tRp159
ag6
(g8
S'\xab\xaa\xaa\xaa\xaa\xaa\x16@'
tRp160
ag6
(g8
S'\x00\x00\x00\x00\x00\x00\x00\x00'
tRp161
ag6
(g8
S'\x00\x00\x00\x00\x00\x00\x00\x00'
tRp162
ag6
(g8
S'\x00\x00\x00\x00\x00\x00\x00\x00'
tRp163
ag6
(g8
S'\xd7Zk\xad\xb5\xd6\xfa?'
tRp164
ag6
(g8
S'\xbd\x86\xf2\x1a\xcak\xd8?'
tRp165
ag6
(g8
S'\x00\x00\x00\x00\x00\x00\x00\x00'
tRp166
ag6
(g8
S'\x00\x00\x00\x00\x00\x00\x00\x00'
tRp167
ag6
(g8
S'\x00\x00\x00\x00\x00\x00\x00\x00'
tRp168
ag6
(g8
S'\x00\x00\x00\x00\x00\x00\x00\x00'
tRp169
ag6
(g8
S"\xa0\x10g\xe5'\xc4\xe9?"
tRp170
ag6
(g8
S'~\x04\xf7\x11\xdcG$@'
tRp171
ag6
(g8
S'\x00\x00\x00\x00\x00\x000@'
tRp172
ag6
(g8
S'{\x14\xaeG\xe1z\x14@'
tRp173
ag6
(g8
S'\xe55\x94\xd7P^3@'
tRp174
ag6
(g8
S'\x90\xc1\xf9\x18\x9c\x8f$@'
tRp175
ag6
(g8
S'\x92$I\x92$I\x1a@'
tRp176
ag6
(g8
S'v\x83)\xf2Y7\x16@'
tRp177
ag6
(g8
S'\xe6\xda\x81\xb9v`(@'
tRp178
ag6
(g8
S'\x92$I\x92$I\xa2?'
tRp179
ag6
(g8
S'\xab\xaa\xaa\xaa\xaa\n\x15@'
tRp180
ag6
(g8
S'\x9e\xd8\x89\x9d\xd8\x89\xdd?'
tRp181
ag6
(g8
S'\xbecj`\xef\x98\xca?'
tRp182
ag6
(g8
S'\xc5N\xec\xc4N\xec\xe4?'
tRp183
ag6
(g8
S'#\x9fu\x83)\xf2\xd9?'
tRp184
ag6
(g8
S'\xa2v%jW\xa2\xd6?'
tRp185
ag6
(g8
S'\xab\xaa\xaa\xaa\xaa\xaa\xca?'
tRp186
ag6
(g8
S'\xf4<\xcf\xf3<\xcf\x15@'
tRp187
ag6
(g8
S'\x834H\x834H\xe3?'
tRp188
ag6
(g8
S'F\x17]t\xd1E\xe7?'
tRp189
ag6
(g8
S'\xf3-\xdf\xf2-\xdf\xe2?'
tRp190
ag6
(g8
S'\xbecj`\xef\x98\xda?'
tRp191
ag6
(g8
S'4\x10\x95\x8e\xec\x19\xf8?'
tRp192
ag6
(g8
S'\x00\x00\x00\x00\x00\x00\xe0?'
tRp193
ag6
(g8
S'\x90\x06i\x90\x06i\xf0?'
tRp194
ag6
(g8
S'\x834H\x834H\xe3?'
tRp195
ag6
(g8
S'\xce\xcaO\x88\xb3\xf2\xe3?'
tRp196
ag6
(g8
S'B\x1a\xa4A\x1a\xa4\xf1?'
tRp197
ag6
(g8
S'^Cy\r\xe55\xd4?'
tRp198
ag6
(g8
S'\x00\x00\x00\x00\x00\x00\x00\x00'
tRp199
ag6
(g8
S'\x00\x00\x00\x00\x00\x00\x00\x00'
tRp200
ag6
(g8
S'5H\x834H\x83\xe4?'
tRp201
ag6
(g8
S'\x97o\xf9\x96o\xf9\xe6?'
tRp202
ag6
(g8
S'Q\xe9\xc8\x9e\x81\xa8\xe4?'
tRp203
ag6
(g8
S"vb'vb'\xe6?"
tRp204
ag6
(g8
S'\xaf\xa1\xbc\x86\xf2\x1a\xe2?'
tRp205
ag6
(g8
S'\x00\x00\x00\x00\x00\x00\x00\x00'
tRp206
ag6
(g8
S'\x00\x00\x00\x00\x00\x00\x00\x00'
tRp207
ag6
(g8
S'\xf9\x96o\xf9\x96o8@'
tRp208
asS'missed'
p209
(lp210
I0
aI0
aI1
aI0
aI0
aI0
aI1
aI0
aI0
aI2
aI0
aI4
aI1
aI0
aI0
aI0
aI0
aI1
aI0
aI0
aI0
aI0
aI0
aI1
aI0
aI0
aI0
aI0
aI0
aI1
aI4
aI5
aI2
aI23
aI24
aI26
aI0
aI3
aI1
aI24
aI1
aI0
aI0
aI0
aI2
aI0
aI0
aI0
aI0
aI0
aI13
aI17
aI0
aI0
aI1
aI0
aI0
aI0
aI0
aI0
aI0
aI0
aI0
aI1
aI1
aI1
aI1
aI1
aI0
aI0
aI0
aI0
aI0
aI0
aI0
aI0
aI0
aI0
aI0
aI0
aI0
aI0
aI21
aI38
aI37
aI35
aI0
aI0
aI1
aI6
aI0
aI0
aI0
aI1
aI0
aI0
aI0
aI46
aI5
aI15
aI35
aI46
aI28
aI3
aI0
aI0
aI0
aI1
aI0
aI0
aI1
aI0
aI0
aI0
aI0
aI0
aI0
aI0
aI0
aI0
aI0
aI0
aI48
aI46
aI0
aI0
aI0
aI0
aI0
aI36
aI0
aI0
aI0
aI0
aI0
aI0
aI0
aI0
aI1
aI1
aI1
aI1
aI1
aI1
aI1
aI1
aI0
aI0
aI19
aI13
aI17
aI14
aI0
aI1
aI1
aI2
aI1
aI1
aI1
aI1
aI1
aI1
aI19
aI16
aI29
aI12
aI24
aI31
aI30
aI16
aI1
aI1
aI0
aI0
aI0
aI2
aI2
aI1
aI4
aI0
aI0
aI0
aI0
aI0
aI0
aI0
aI1
aI0
aI1
aI0
aI0
aI0
aI0
aI0
aI0
aI0
aI1
aI0
aI2
aI16
asS'history_length'
p211
I2
sS'recall'
p212
(lp213
I1
aI1
aF0
aF1
aI1
aI1
aF0
aF1
aI1
aF0.5
aF1
aF0.55555555555555558
aF0
aF1
aI1
aI1
aF1
aF0
aI1
aI1
aI1
aI1
aF1
aF0
aI1
aI1
aI1
aI1
aI1
aF0
aF0.20000000000000001
aF0.54545454545454541
aF0.59999999999999998
aF0.5490196078431373
aF0.54716981132075471
aF0.46938775510204084
aI1
aF0.69999999999999996
aF0
aF0.54716981132075471
aF0.5
aF1
aI1
aI1
aF0.75
aI1
aI1
aI1
aI1
aF1
aF0.58064516129032262
aF0.43333333333333335
aI1
aI1
aF0
aI1
aI1
aI1
aI1
aI1
aF1
aF1
aF1
aF0
aF0.66666666666666663
aF0
aF0.5
aF0
aI1
aI1
aI1
aI1
aI1
aI1
aI1
aI1
aI1
aF1
aI1
aF1
aI1
aI1
aF0.71621621621621623
aF0.48648648648648651
aF0.5
aF0.52702702702702697
aI1
aI1
aF0.5
aF0.25
aI1
aI1
aI1
aF0
aI1
aI1
aI1
aF0.3611111111111111
aF0.66666666666666663
aF0.55882352941176472
aF0.51388888888888884
aF0.3611111111111111
aF0.61111111111111116
aF0.25
aI1
aI1
aI1
aF0
aF1
aF1
aF0
aI1
aI1
aF1
aF1
aI1
aI1
aI1
aI1
aI1
aI1
aI1
aF0.33333333333333331
aF0.3611111111111111
aI1
aI1
aI1
aI1
aI1
aF0.36842105263157893
aI1
aI1
aI1
aI1
aI1
aI1
aF1
aF1
aF0
aF0
aF0.5
aF0
aF0
aF0.5
aF0
aF0.5
aI1
aI1
aF0.52500000000000002
aF0.60606060606060608
aF0.48484848484848486
aF0.5757575757575758
aI1
aF0
aF0
aF0.7142857142857143
aF0.5
aF0
aF0
aF0
aF0
aF0.83333333333333337
aF0.55813953488372092
aF0.66666666666666663
aF0.39583333333333331
aF0.75
aF0.53846153846153844
aF0.39215686274509803
aF0.38775510204081631
aF0.64444444444444449
aF0.5
aF0.94117647058823528
aF1
aF1
aF1
aF0.33333333333333331
aF0.33333333333333331
aF0.66666666666666663
aF0.73333333333333328
aF1
aF1
aF1
aF1
aF1
aF1
aF1
aF0.5
aF1
aF0.66666666666666663
aF1
aI1
aI1
aF1
aF1
aF1
aF1
aF0.5
aI1
aF0
aF0.7192982456140351
asS'durations'
p214
(lp215
F0.0052969455718994141
aF0.000125885009765625
aF0.0027320384979248047
aF0.0058939456939697266
aF0.0025868415832519531
aF0.0019989013671875
aF0.0021150112152099609
aF0.0030679702758789062
aF0.0043277740478515625
aF0.0029840469360351562
aF0.0056078433990478516
aF0.0084209442138671875
aF0.0025410652160644531
aF0.0025041103363037109
aF0.0025401115417480469
aF0.0022559165954589844
aF0.003173828125
aF0.0031418800354003906
aF0.0025110244750976562
aF0.0026638507843017578
aF0.0028541088104248047
aF0.0025868415832519531
aF0.0030431747436523438
aF0.0029420852661132812
aF0.0031790733337402344
aF0.0035409927368164062
aF0.0030319690704345703
aF0.0029201507568359375
aF0.0032670497894287109
aF0.0034849643707275391
aF0.0049641132354736328
aF0.016899824142456055
aF0.01106715202331543
aF0.0055410861968994141
aF0.0060019493103027344
aF0.0052959918975830078
aF0.00011277198791503906
aF0.012445926666259766
aF0.0039880275726318359
aF0.011259078979492188
aF0.02198481559753418
aF0.0028588771820068359
aF0.00010704994201660156
aF0.0069959163665771484
aF0.0074648857116699219
aF0.0071361064910888672
aF0.0069692134857177734
aF0.0038688182830810547
aF0.0069220066070556641
aF0.010795831680297852
aF0.0075280666351318359
aF0.0068349838256835938
aF0.0036790370941162109
aF0.0059638023376464844
aF0.0068631172180175781
aF0.0059518814086914062
aF0.0065090656280517578
aF0.0069561004638671875
aF0.0067200660705566406
aF0.010142087936401367
aF0.0075600147247314453
aF0.0070312023162841797
aF0.0074250698089599609
aF0.0061528682708740234
aF0.0030760765075683594
aF0.0039429664611816406
aF0.0071659088134765625
aF0.0064909458160400391
aF0.0066220760345458984
aF0.0061469078063964844
aF0.0066239833831787109
aF0.0065691471099853516
aF0.0070488452911376953
aF0.0059380531311035156
aF0.0062408447265625
aF0.0065250396728515625
aF0.0066070556640625
aF0.0037479400634765625
aF0.00029706954956054688
aF0.0076940059661865234
aF0.0070550441741943359
aF0.0067582130432128906
aF0.015433073043823242
aF0.0041778087615966797
aF0.0049211978912353516
aF0.0065782070159912109
aF0.006404876708984375
aF0.0070691108703613281
aF0.011300086975097656
aF0.0089728832244873047
aF0.0069870948791503906
aF0.0066349506378173828
aF0.0073778629302978516
aF0.0063979625701904297
aF0.0061528682708740234
aF0.007061004638671875
aF0.0064990520477294922
aF0.0075771808624267578
aF0.0023601055145263672
aF0.0056529045104980469
aF0.0084500312805175781
aF0.0078690052032470703
aF0.0079860687255859375
aF0.010526895523071289
aF0.0064759254455566406
aF0.0065481662750244141
aF0.0077068805694580078
aF0.0082800388336181641
aF0.007595062255859375
aF0.0085380077362060547
aF0.0065159797668457031
aF0.0050470829010009766
aF5.1021575927734375e-05
aF0.0080800056457519531
aF0.0075330734252929688
aF0.0066850185394287109
aF0.0071821212768554688
aF0.0066320896148681641
aF0.0067110061645507812
aF0.0065968036651611328
aF0.0070621967315673828
aF0.0068669319152832031
aF0.0080730915069580078
aF0.008441925048828125
aF0.0066440105438232422
aF0.0082261562347412109
aF0.0069899559020996094
aF0.0062401294708251953
aF0.0065541267395019531
aF0.0093910694122314453
aF0.0024170875549316406
aF0.0054519176483154297
aF0.00010704994201660156
aF0.0066311359405517578
aF0.0071299076080322266
aF0.0065629482269287109
aF0.0085730552673339844
aF0.0079019069671630859
aF0.0066421031951904297
aF0.0067708492279052734
aF0.0081248283386230469
aF0.0063569545745849609
aF0.0070390701293945312
aF0.0076670646667480469
aF0.0061311721801757812
aF0.0077378749847412109
aF0.00048899650573730469
aF0.00011110305786132812
aF0.0049340724945068359
aF0.0077140331268310547
aF0.0075948238372802734
aF0.0078930854797363281
aF0.00012302398681640625
aF0.007266998291015625
aF0.0074751377105712891
aF0.0033490657806396484
aF0.0080790519714355469
aF0.0071198940277099609
aF0.0069651603698730469
aF0.0067560672760009766
aF0.0073089599609375
aF0.0082111358642578125
aF0.0057702064514160156
aF0.0078449249267578125
aF0.0079889297485351562
aF0.0078060626983642578
aF0.0086081027984619141
aF0.0089290142059326172
aF0.0081889629364013672
aF0.0075540542602539062
aF0.0030729770660400391
aF0.010814905166625977
aF0.0081319808959960938
aF0.0080611705780029297
aF0.010350942611694336
aF0.0079300403594970703
aF0.0089418888092041016
aF0.0025870800018310547
aF0.0091950893402099609
aF0.0082290172576904297
aF0.0090320110321044922
aF0.01252293586730957
aF0.0079538822174072266
aF0.0082521438598632812
aF0.0030951499938964844
aF0.0082612037658691406
aF0.0091671943664550781
aF0.0083768367767333984
aF0.0078001022338867188
aF0.005886077880859375
aF0.00012683868408203125
aF0.0044679641723632812
aF0.0085010528564453125
aF0.0079398155212402344
aF0.0080950260162353516
aF0.0079829692840576172
aF0.0079948902130126953
aF0.00012493133544921875
aF0.0029709339141845703
aF0.0078320503234863281
asS'step'
p216
(lp217
I1
aI2
aI3
aI4
aI5
aI6
aI7
aI8
aI9
aI10
aI11
aI12
aI13
aI14
aI15
aI16
aI17
aI18
aI19
aI20
aI21
aI22
aI23
aI24
aI25
aI26
aI27
aI28
aI29
aI30
aI31
aI32
aI33
aI34
aI35
aI36
aI37
aI38
aI39
aI40
aI41
aI42
aI43
aI44
aI45
aI46
aI47
aI48
aI49
aI50
aI51
aI52
aI53
aI54
aI55
aI56
aI57
aI58
aI59
aI60
aI61
aI62
aI63
aI64
aI65
aI66
aI67
aI68
aI69
aI70
aI71
aI72
aI73
aI74
aI75
aI76
aI77
aI78
aI79
aI80
aI81
aI82
aI83
aI84
aI85
aI86
aI87
aI88
aI89
aI90
aI91
aI92
aI93
aI94
aI95
aI96
aI97
aI98
aI99
aI100
aI101
aI102
aI103
aI104
aI105
aI106
aI107
aI108
aI109
aI110
aI111
aI112
aI113
aI114
aI115
aI116
aI117
aI118
aI119
aI120
aI121
aI122
aI123
aI124
aI125
aI126
aI127
aI128
aI129
aI130
aI131
aI132
aI133
aI134
aI135
aI136
aI137
aI138
aI139
aI140
aI141
aI142
aI143
aI144
aI145
aI146
aI147
aI148
aI149
aI150
aI151
aI152
aI153
aI154
aI155
aI156
aI157
aI158
aI159
aI160
aI161
aI162
aI163
aI164
aI165
aI166
aI167
aI168
aI169
aI170
aI171
aI172
aI173
aI174
aI175
aI176
aI177
aI178
aI179
aI180
aI181
aI182
aI183
aI184
aI185
aI186
aI187
aI188
aI189
aI190
aI191
aI192
aI193
aI194
aI195
aI196
aI197
aI198
aI199
aI200
asS'agent'
p218
S'tableau'
p219
sS'sched_time'
p220
F0.5
sS'scenarios'
p221
(lp222
S'2016-01-13T09:17:00'
p223
aS'2016-01-13T10:39:00'
p224
aS'2016-01-14T12:15:00'
p225
aS'2016-01-15T09:50:00'
p226
aS'2016-01-16T00:22:00'
p227
aS'2016-01-17T00:21:00'
p228
aS'2016-01-18T00:19:00'
p229
aS'2016-01-19T00:15:00'
p230
aS'2016-01-20T00:13:00'
p231
aS'2016-01-21T00:12:00'
p232
aS'2016-01-22T00:11:00'
p233
aS'2016-01-23T00:09:00'
p234
aS'2016-01-24T00:09:00'
p235
aS'2016-01-25T00:08:00'
p236
aS'2016-01-26T00:07:00'
p237
aS'2016-01-27T00:06:00'
p238
aS'2016-01-28T00:04:00'
p239
aS'2016-01-29T00:04:00'
p240
aS'2016-01-30T00:04:00'
p241
aS'2016-01-31T00:02:00'
p242
aS'2016-02-01T00:01:00'
p243
aS'2016-02-02T00:01:00'
p244
aS'2016-02-02T23:57:00'
p245
aS'2016-02-03T23:56:00'
p246
aS'2016-02-04T23:55:00'
p247
aS'2016-02-05T23:53:00'
p248
aS'2016-02-06T23:53:00'
p249
aS'2016-02-07T23:52:00'
p250
aS'2016-02-08T23:50:00'
p251
aS'2016-02-09T23:48:00'
p252
aS'2016-02-10T23:47:00'
p253
aS'2016-02-11T23:46:00'
p254
aS'2016-02-12T23:42:00'
p255
aS'2016-02-13T23:41:00'
p256
aS'2016-02-14T23:41:00'
p257
aS'2016-02-15T23:41:00'
p258
aS'2016-02-16T00:49:00'
p259
aS'2016-02-17T08:55:00'
p260
aS'2016-02-18T02:45:00'
p261
aS'2016-02-19T02:45:00'
p262
aS'2016-02-20T02:18:00'
p263
aS'2016-02-21T02:18:00'
p264
aS'2016-02-22T00:29:00'
p265
aS'2016-02-23T07:56:00'
p266
aS'2016-02-24T03:00:00'
p267
aS'2016-02-25T02:18:00'
p268
aS'2016-02-26T02:15:00'
p269
aS'2016-02-27T02:14:00'
p270
aS'2016-02-28T02:14:00'
p271
aS'2016-02-29T02:14:00'
p272
aS'2016-03-01T00:43:00'
p273
aS'2016-03-02T00:16:00'
p274
aS'2016-03-03T00:15:00'
p275
aS'2016-03-04T00:10:00'
p276
aS'2016-03-05T00:09:00'
p277
aS'2016-03-06T00:05:00'
p278
aS'2016-03-06T23:59:00'
p279
aS'2016-03-07T23:59:00'
p280
aS'2016-03-08T23:54:00'
p281
aS'2016-03-09T23:54:00'
p282
aS'2016-03-10T21:55:00'
p283
aS'2016-03-11T21:52:00'
p284
aS'2016-03-12T21:51:00'
p285
aS'2016-03-13T21:51:00'
p286
aS'2016-03-14T21:51:00'
p287
aS'2016-03-15T19:52:00'
p288
aS'2016-03-16T19:52:00'
p289
aS'2016-03-17T19:52:00'
p290
aS'2016-03-18T19:51:00'
p291
aS'2016-03-19T19:51:00'
p292
aS'2016-03-20T19:50:00'
p293
aS'2016-03-21T19:50:00'
p294
aS'2016-03-22T19:49:00'
p295
aS'2016-03-23T19:48:00'
p296
aS'2016-03-24T19:48:00'
p297
aS'2016-03-25T19:47:00'
p298
aS'2016-03-26T19:46:00'
p299
aS'2016-03-27T19:45:00'
p300
aS'2016-03-28T18:02:00'
p301
aS'2016-03-29T18:02:00'
p302
aS'2016-03-30T18:02:00'
p303
aS'2016-03-31T18:02:00'
p304
aS'2016-04-01T18:02:00'
p305
aS'2016-04-02T18:01:00'
p306
aS'2016-04-03T18:00:00'
p307
aS'2016-04-04T18:00:00'
p308
aS'2016-04-05T18:00:00'
p309
aS'2016-04-06T18:00:00'
p310
aS'2016-04-07T18:00:00'
p311
aS'2016-04-08T18:00:00'
p312
aS'2016-04-09T18:00:00'
p313
aS'2016-04-10T18:00:00'
p314
aS'2016-04-11T18:00:00'
p315
aS'2016-04-12T18:00:00'
p316
aS'2016-04-13T18:00:00'
p317
aS'2016-04-14T18:00:00'
p318
aS'2016-04-15T18:00:00'
p319
aS'2016-04-16T18:00:00'
p320
aS'2016-04-16T18:40:00'
p321
aS'2016-04-17T18:39:00'
p322
aS'2016-04-17T20:14:00'
p323
aS'2016-04-18T19:54:00'
p324
aS'2016-04-19T18:42:00'
p325
aS'2016-04-20T18:41:00'
p326
aS'2016-04-21T18:41:00'
p327
aS'2016-04-22T18:41:00'
p328
aS'2016-04-23T18:40:00'
p329
aS'2016-04-24T18:40:00'
p330
aS'2016-04-25T18:39:00'
p331
aS'2016-04-26T18:39:00'
p332
aS'2016-04-27T18:39:00'
p333
aS'2016-04-28T18:39:00'
p334
aS'2016-04-28T20:39:00'
p335
aS'2016-05-03T18:00:00'
p336
aS'2016-05-04T18:00:00'
p337
aS'2016-05-05T18:00:00'
p338
aS'2016-05-06T18:00:00'
p339
aS'2016-05-07T18:00:00'
p340
aS'2016-05-08T18:00:00'
p341
aS'2016-05-09T18:00:00'
p342
aS'2016-05-10T18:00:00'
p343
aS'2016-05-11T18:00:00'
p344
aS'2016-05-12T18:00:00'
p345
aS'2016-05-13T18:00:00'
p346
aS'2016-05-14T18:00:00'
p347
aS'2016-05-15T18:00:00'
p348
aS'2016-05-15T20:39:00'
p349
aS'2016-05-16T20:38:00'
p350
aS'2016-05-17T20:38:00'
p351
aS'2016-05-18T20:38:00'
p352
aS'2016-05-19T19:05:00'
p353
aS'2016-05-20T18:59:00'
p354
aS'2016-05-20T20:47:00'
p355
aS'2016-05-22T18:01:00'
p356
aS'2016-05-23T18:01:00'
p357
aS'2016-05-24T18:00:00'
p358
aS'2016-05-25T18:00:00'
p359
aS'2016-05-25T20:45:00'
p360
aS'2016-05-26T20:40:00'
p361
aS'2016-05-27T20:40:00'
p362
aS'2016-05-28T20:40:00'
p363
aS'2016-05-29T20:40:00'
p364
aS'2016-05-30T20:40:00'
p365
aS'2016-05-31T20:39:00'
p366
aS'2016-06-01T20:36:00'
p367
aS'2016-06-02T20:36:00'
p368
aS'2016-06-03T20:36:00'
p369
aS'2016-06-03T20:41:00'
p370
aS'2016-06-07T18:01:00'
p371
aS'2016-06-08T18:00:00'
p372
aS'2016-06-09T18:00:00'
p373
aS'2016-06-10T18:00:00'
p374
aS'2016-06-10T20:23:00'
p375
aS'2016-06-12T18:09:00'
p376
aS'2016-06-13T18:09:00'
p377
aS'2016-06-14T18:08:00'
p378
aS'2016-06-15T18:08:00'
p379
aS'2016-06-16T18:08:00'
p380
aS'2016-06-17T18:07:00'
p381
aS'2016-06-18T18:05:00'
p382
aS'2016-06-19T18:05:00'
p383
aS'2016-06-20T18:05:00'
p384
aS'2016-06-21T18:00:00'
p385
aS'2016-06-22T18:00:00'
p386
aS'2016-06-22T19:10:00'
p387
aS'2016-06-23T19:10:00'
p388
aS'2016-06-24T19:10:00'
p389
aS'2016-06-25T19:09:00'
p390
aS'2016-06-26T19:08:00'
p391
aS'2016-06-27T19:07:00'
p392
aS'2016-06-28T18:56:00'
p393
aS'2016-06-29T18:54:00'
p394
aS'2016-06-30T18:54:00'
p395
aS'2016-07-01T18:52:00'
p396
aS'2016-07-02T18:51:00'
p397
aS'2016-07-03T18:51:00'
p398
aS'2016-07-04T18:51:00'
p399
aS'2016-07-05T18:51:00'
p400
aS'2016-07-06T18:49:00'
p401
aS'2016-07-07T18:49:00'
p402
aS'2016-07-08T18:49:00'
p403
aS'2016-07-09T18:48:00'
p404
aS'2016-07-10T18:48:00'
p405
aS'2016-07-11T18:47:00'
p406
aS'2016-07-12T18:47:00'
p407
aS'2016-07-13T18:46:00'
p408
aS'2016-07-14T18:46:00'
p409
aS'2016-07-15T18:45:00'
p410
aS'2016-07-16T18:42:00'
p411
aS'2016-07-17T18:42:00'
p412
aS'2016-07-17T20:44:00'
p413
aS'2016-07-19T18:00:00'
p414
aS'2016-07-20T18:00:00'
p415
aS'2016-07-21T18:00:00'
p416
aS'2016-07-22T18:00:00'
p417
aS'2016-07-23T18:00:00'
p418
aS'2016-07-24T18:00:00'
p419
aS'2016-07-24T20:44:00'
p420
aS'2016-07-26T18:00:00'
p421
aS'2016-07-27T18:00:00'
p422
asS'detected'
p423
(lp424
I0
aI0
aI0
aI1
aI0
aI0
aI0
aI1
aI0
aI2
aI4
aI5
aI0
aI1
aI0
aI0
aI3
aI0
aI0
aI0
aI0
aI0
aI4
aI0
aI0
aI0
aI0
aI0
aI0
aI0
aI1
aI6
aI3
aI28
aI29
aI23
aI0
aI7
aI0
aI29
aI1
aI1
aI0
aI0
aI6
aI0
aI0
aI0
aI0
aI1
aI18
aI13
aI0
aI0
aI0
aI0
aI0
aI0
aI0
aI0
aI1
aI1
aI1
aI0
aI2
aI0
aI1
aI0
aI0
aI0
aI0
aI0
aI0
aI0
aI0
aI0
aI0
aI1
aI0
aI1
aI0
aI0
aI53
aI36
aI37
aI39
aI0
aI0
aI1
aI2
aI0
aI0
aI0
aI0
aI0
aI0
aI0
aI26
aI10
aI19
aI37
aI26
aI44
aI1
aI0
aI0
aI0
aI0
aI1
aI1
aI0
aI0
aI0
aI2
aI1
aI0
aI0
aI0
aI0
aI0
aI0
aI0
aI24
aI26
aI0
aI0
aI0
aI0
aI0
aI21
aI0
aI0
aI0
aI0
aI0
aI0
aI1
aI2
aI0
aI0
aI1
aI0
aI0
aI1
aI0
aI1
aI0
aI0
aI21
aI20
aI16
aI19
aI0
aI0
aI0
aI5
aI1
aI0
aI0
aI0
aI0
aI5
aI24
aI32
aI19
aI36
aI28
aI20
aI19
aI29
aI1
aI16
aI2
aI1
aI2
aI1
aI1
aI2
aI11
aI1
aI2
aI1
aI1
aI3
aI1
aI2
aI1
aI1
aI2
aI1
aI0
aI0
aI1
aI2
aI1
aI1
aI1
aI0
aI0
aI41
asS'result'
p425
(lp426
(lp427
I0
aI0
aI0
aI1
aI1
aI1
a(lp428
aa(lp429
I0
aI0
aI0
aI1
aI1
aI1
a(lp430
aa(lp431
I0
aI1
aI0
aF0
aF0
aI123
a(lp432
aa(lp433
I1
aI0
aI4
aF0.93965517241379304
aF1
aI123
a(lp434
I4
aaa(lp435
I0
aI0
aI0
aI1
aI1
aI1
a(lp436
aa(lp437
I0
aI0
aI0
aI1
aI1
aI1
a(lp438
aa(lp439
I0
aI1
aI0
aF0
aF0
aI123
a(lp440
aa(lp441
I1
aI0
aI12
aF0.62903225806451613
aF1
aI123
a(lp442
I12
aaa(lp443
I0
aI0
aI0
aI1
aI1
aI1
a(lp444
aa(lp445
I2
aI2
aI3
aF0.40833333333333338
aF0.5
aI123
a(lp446
I3
aI9
aaa(lp447
I4
aI0
aI9
aF0.63983050847457623
aF1
aI123
a(lp448
I9
aI16
aI30
aI32
aaa(lp449
I5
aI4
aI25
aF0.34135802469135806
aF0.55555555555555558
aI123
a(lp450
I25
aI28
aI30
aI45
aI48
aaa(lp451
I0
aI1
aI0
aF0
aF0
aI123
a(lp452
aa(lp453
I1
aI0
aI4
aF0.87037037037037035
aF1
aI123
a(lp454
I4
aaa(lp455
I0
aI0
aI0
aI1
aI1
aI1
a(lp456
aa(lp457
I0
aI0
aI0
aI1
aI1
aI1
a(lp458
aa(lp459
I3
aI0
aI10
aF0.51010101010101006
aF1
aI123
a(lp460
I10
aI13
aI27
aaa(lp461
I0
aI1
aI0
aF0
aF0
aI123
a(lp462
aa(lp463
I0
aI0
aI0
aI1
aI1
aI1
a(lp464
aa(lp465
I0
aI0
aI0
aI1
aI1
aI1
a(lp466
aa(lp467
I0
aI0
aI0
aI1
aI1
aI1
a(lp468
aa(lp469
I0
aI0
aI0
aI1
aI1
aI1
a(lp470
aa(lp471
I4
aI0
aI1
aF0.77272727272727271
aF1
aI123
a(lp472
I1
aI2
aI9
aI20
aaa(lp473
I0
aI1
aI0
aF0
aF0
aI123
a(lp474
aa(lp475
I0
aI0
aI0
aI1
aI1
aI1
a(lp476
aa(lp477
I0
aI0
aI0
aI1
aI1
aI1
a(lp478
aa(lp479
I0
aI0
aI0
aI1
aI1
aI1
a(lp480
aa(lp481
I0
aI0
aI0
aI1
aI1
aI1
a(lp482
aa(lp483
I0
aI0
aI0
aI1
aI1
aI1
a(lp484
aa(lp485
I0
aI1
aI0
aF0
aF0
aI123
a(lp486
aa(lp487
I1
aI4
aI17
aF0.13529411764705884
aF0.20000000000000001
aI123
a(lp488
I17
aaa(lp489
I6
aI5
aI20
aF0.3857954545454545
aF0.54545454545454541
aI123
a(lp490
I20
aI26
aI39
aI42
aI77
aI80
aaa(lp491
I3
aI2
aI1
aF0.57964601769911506
aF0.59999999999999998
aI123
a(lp492
I1
aI2
aI10
aaa(lp493
I28
aI23
aI1
aF0.40163398692810459
aF0.5490196078431373
aI123
a(lp494
I1
aI2
aI3
aI4
aI5
aI6
aI7
aI8
aI9
aI12
aI13
aI14
aI15
aI16
aI18
aI19
aI20
aI21
aI22
aI23
aI24
aI26
aI27
aI28
aI29
aI30
aI31
aI32
aaa(lp495
I29
aI24
aI1
aF0.40429093122337184
aF0.54716981132075471
aI123
a(lp496
I1
aI2
aI3
aI4
aI5
aI6
aI7
aI8
aI9
aI10
aI11
aI12
aI13
aI14
aI15
aI16
aI17
aI18
aI22
aI23
aI24
aI25
aI26
aI27
aI30
aI31
aI34
aI35
aI36
aaa(lp497
I23
aI26
aI1
aF0.34334845049130763
aF0.46938775510204084
aI123
a(lp498
I1
aI2
aI3
aI5
aI6
aI7
aI9
aI10
aI11
aI13
aI14
aI15
aI16
aI18
aI19
aI21
aI22
aI23
aI24
aI25
aI26
aI27
aI28
aaa(lp499
I0
aI0
aI0
aI1
aI1
aI1
a(lp500
aa(lp501
I7
aI3
aI3
aF0.51975806451612894
aF0.69999999999999996
aI123
a(lp502
I3
aI21
aI23
aI37
aI45
aI46
aI52
aaa(lp503
I0
aI1
aI0
aF0
aF0
aI123
a(lp504
aa(lp505
I29
aI24
aI2
aF0.41265161725067379
aF0.54716981132075471
aI123
a(lp506
I2
aI3
aI4
aI5
aI8
aI13
aI16
aI20
aI23
aI24
aI25
aI26
aI27
aI28
aI29
aI30
aI31
aI32
aI34
aI37
aI38
aI39
aI40
aI41
aI45
aI46
aI48
aI49
aI50
aaa(lp507
I1
aI1
aI45
aF0.39039408866995073
aF0.5
aI123
a(lp508
I45
aaa(lp509
I1
aI0
aI2
aF0.94827586206896552
aF1
aI123
a(lp510
I2
aaa(lp511
I0
aI0
aI0
aI1
aI1
aI1
a(lp512
aa(lp513
I0
aI0
aI0
aI1
aI1
aI1
a(lp514
aa(lp515
I6
aI2
aI7
aF0.54391891891891886
aF0.75
aI123
a(lp516
I7
aI13
aI15
aI20
aI22
aI48
aaa(lp517
I0
aI0
aI0
aI1
aI1
aI1
a(lp518
aa(lp519
I0
aI0
aI0
aI1
aI1
aI1
a(lp520
aa(lp521
I0
aI0
aI0
aI1
aI1
aI1
a(lp522
aa(lp523
I0
aI0
aI0
aI1
aI1
aI1
a(lp524
aa(lp525
I1
aI0
aI11
aF0.89805825242718451
aF1
aI123
a(lp526
I11
aaa(lp527
I18
aI13
aI1
aF0.38578901482127298
aF0.58064516129032262
aI123
a(lp528
I1
aI2
aI4
aI9
aI14
aI20
aI21
aI23
aI24
aI29
aI34
aI35
aI36
aI37
aI39
aI41
aI43
aI44
aaa(lp529
I13
aI17
aI1
aF0.33067632850241552
aF0.43333333333333335
aI123
a(lp530
I1
aI2
aI3
aI15
aI16
aI17
aI18
aI19
aI20
aI21
aI24
aI31
aI32
aaa(lp531
I0
aI0
aI0
aI1
aI1
aI1
a(lp532
aa(lp533
I0
aI0
aI0
aI1
aI1
aI1
a(lp534
aa(lp535
I0
aI1
aI0
aF0
aF0
aI123
a(lp536
aa(lp537
I0
aI0
aI0
aI1
aI1
aI1
a(lp538
aa(lp539
I0
aI0
aI0
aI1
aI1
aI1
a(lp540
aa(lp541
I0
aI0
aI0
aI1
aI1
aI1
a(lp542
aa(lp543
I0
aI0
aI0
aI1
aI1
aI1
a(lp544
aa(lp545
I0
aI0
aI0
aI1
aI1
aI1
a(lp546
aa(lp547
I1
aI0
aI18
aF0.7635135135135136
aF1
aI123
a(lp548
I18
aaa(lp549
I1
aI0
aI41
aF0.42957746478873238
aF1
aI123
a(lp550
I41
aaa(lp551
I1
aI0
aI10
aF0.875
aF1
aI123
a(lp552
I10
aaa(lp553
I0
aI1
aI0
aF0
aF0
aI123
a(lp554
aa(lp555
I2
aI1
aI3
aF0.51041666666666663
aF0.66666666666666663
aI123
a(lp556
I3
aI13
aaa(lp557
I0
aI1
aI0
aF0
aF0
aI123
a(lp558
aa(lp559
I1
aI1
aI11
aF0.42905405405405406
aF0.5
aI123
a(lp560
I11
aaa(lp561
I0
aI1
aI0
aF0
aF0
aI123
a(lp562
aa(lp563
I0
aI0
aI0
aI1
aI1
aI1
a(lp564
aa(lp565
I0
aI0
aI0
aI1
aI1
aI1
a(lp566
aa(lp567
I0
aI0
aI0
aI1
aI1
aI1
a(lp568
aa(lp569
I0
aI0
aI0
aI1
aI1
aI1
a(lp570
aa(lp571
I0
aI0
aI0
aI1
aI1
aI1
a(lp572
aa(lp573
I0
aI0
aI0
aI1
aI1
aI1
a(lp574
aa(lp575
I0
aI0
aI0
aI1
aI1
aI1
a(lp576
aa(lp577
I0
aI0
aI0
aI1
aI1
aI1
a(lp578
aa(lp579
I0
aI0
aI0
aI1
aI1
aI1
a(lp580
aa(lp581
I1
aI0
aI15
aF0.58571428571428563
aF1
aI123
a(lp582
I15
aaa(lp583
I0
aI0
aI0
aI1
aI1
aI1
a(lp584
aa(lp585
I1
aI0
aI18
aF0.7635135135135136
aF1
aI123
a(lp586
I18
aaa(lp587
I0
aI0
aI0
aI1
aI1
aI1
a(lp588
aa(lp589
I0
aI0
aI0
aI1
aI1
aI1
a(lp590
aa(lp591
I53
aI21
aI1
aF0.57143522833178007
aF0.71621621621621623
aI123
a(lp592
I1
aI3
aI5
aI6
aI7
aI8
aI9
aI10
aI11
aI12
aI13
aI14
aI16
aI17
aI18
aI19
aI20
aI21
aI22
aI23
aI24
aI25
aI26
aI27
aI28
aI29
aI30
aI31
aI32
aI33
aI34
aI35
aI36
aI37
aI38
aI39
aI40
aI41
aI42
aI43
aI44
aI45
aI46
aI47
aI48
aI49
aI50
aI51
aI52
aI53
aI54
aI55
aI61
aaa(lp593
I36
aI38
aI1
aF0.36815193571950333
aF0.48648648648648651
aI123
a(lp594
I1
aI2
aI3
aI4
aI5
aI6
aI7
aI8
aI9
aI10
aI11
aI12
aI13
aI14
aI15
aI16
aI17
aI18
aI19
aI20
aI21
aI22
aI23
aI24
aI25
aI26
aI27
aI28
aI29
aI30
aI31
aI32
aI33
aI34
aI35
aI36
aaa(lp595
I37
aI37
aI1
aF0.375
aF0.5
aI123
a(lp596
I1
aI2
aI3
aI4
aI5
aI6
aI7
aI8
aI9
aI10
aI11
aI12
aI13
aI14
aI15
aI16
aI17
aI18
aI19
aI20
aI21
aI22
aI23
aI24
aI25
aI26
aI27
aI28
aI29
aI30
aI31
aI32
aI33
aI34
aI35
aI36
aI37
aaa(lp597
I39
aI35
aI1
aF0.38814828341855362
aF0.52702702702702697
aI123
a(lp598
I1
aI2
aI3
aI4
aI5
aI6
aI7
aI8
aI9
aI10
aI11
aI12
aI13
aI14
aI15
aI16
aI17
aI18
aI19
aI20
aI21
aI22
aI23
aI24
aI25
aI26
aI27
aI28
aI29
aI30
aI31
aI32
aI33
aI34
aI35
aI36
aI37
aI38
aI39
aaa(lp599
I0
aI0
aI0
aI1
aI1
aI1
a(lp600
aa(lp601
I0
aI0
aI0
aI1
aI1
aI1
a(lp602
aa(lp603
I1
aI1
aI31
aF0.29934210526315785
aF0.5
aI123
a(lp604
I31
aaa(lp605
I2
aI6
aI27
aF0.15953947368421051
aF0.25
aI123
a(lp606
I27
aI29
aaa(lp607
I0
aI0
aI0
aI1
aI1
aI1
a(lp608
aa(lp609
I0
aI0
aI0
aI1
aI1
aI1
a(lp610
aa(lp611
I0
aI0
aI0
aI1
aI1
aI1
a(lp612
aa(lp613
I0
aI1
aI0
aF0
aF0
aI123
a(lp614
aa(lp615
I0
aI0
aI0
aI1
aI1
aI1
a(lp616
aa(lp617
I0
aI0
aI0
aI1
aI1
aI1
a(lp618
aa(lp619
I0
aI0
aI0
aI1
aI1
aI1
a(lp620
aa(lp621
I26
aI46
aI1
aF0.29851851851851852
aF0.3611111111111111
aI123
a(lp622
I1
aI2
aI3
aI4
aI5
aI6
aI7
aI8
aI9
aI10
aI11
aI12
aI13
aI14
aI15
aI16
aI17
aI18
aI19
aI20
aI21
aI22
aI23
aI24
aI25
aI26
aaa(lp623
I10
aI5
aI1
aF0.487719298245614
aF0.66666666666666663
aI123
a(lp624
I1
aI2
aI3
aI4
aI5
aI6
aI7
aI8
aI9
aI11
aaa(lp625
I19
aI15
aI2
aF0.38777089783281737
aF0.55882352941176472
aI123
a(lp626
I2
aI3
aI6
aI7
aI9
aI10
aI15
aI16
aI17
aI18
aI20
aI21
aI23
aI24
aI25
aI27
aI29
aI34
aI35
aaa(lp627
I37
aI35
aI2
aF0.37691885964912275
aF0.51388888888888884
aI123
a(lp628
I2
aI3
aI4
aI5
aI6
aI7
aI8
aI9
aI10
aI12
aI13
aI14
aI15
aI16
aI17
aI18
aI19
aI20
aI21
aI22
aI23
aI24
aI25
aI26
aI27
aI28
aI29
aI30
aI31
aI32
aI33
aI34
aI35
aI36
aI37
aI38
aI39
aaa(lp629
I26
aI46
aI1
aF0.29422514619883039
aF0.3611111111111111
aI123
a(lp630
I1
aI2
aI3
aI4
aI5
aI6
aI7
aI8
aI9
aI10
aI11
aI12
aI15
aI16
aI17
aI18
aI19
aI20
aI21
aI22
aI23
aI24
aI25
aI26
aI27
aI28
aaa(lp631
I44
aI28
aI1
aF0.43421052631578949
aF0.61111111111111116
aI123
a(lp632
I1
aI2
aI3
aI4
aI5
aI6
aI7
aI8
aI9
aI10
aI11
aI12
aI13
aI14
aI15
aI16
aI17
aI18
aI19
aI20
aI21
aI22
aI23
aI24
aI25
aI26
aI27
aI28
aI29
aI30
aI31
aI32
aI33
aI34
aI35
aI36
aI37
aI38
aI39
aI40
aI41
aI42
aI43
aI44
aaa(lp633
I1
aI3
aI8
aF0.23161764705882354
aF0.25
aI123
a(lp634
I8
aaa(lp635
I0
aI0
aI0
aI1
aI1
aI1
a(lp636
aa(lp637
I0
aI0
aI0
aI1
aI1
aI1
a(lp638
aa(lp639
I0
aI0
aI0
aI1
aI1
aI1
a(lp640
aa(lp641
I0
aI1
aI0
aF0
aF0
aI123
a(lp642
aa(lp643
I1
aI0
aI38
aF0.50657894736842102
aF1
aI123
a(lp644
I38
aaa(lp645
I1
aI0
aI1
aF0.99342105263157887
aF1
aI123
a(lp646
I1
aaa(lp647
I0
aI1
aI0
aF0
aF0
aI123
a(lp648
aa(lp649
I0
aI0
aI0
aI1
aI1
aI1
a(lp650
aa(lp651
I0
aI0
aI0
aI1
aI1
aI1
a(lp652
aa(lp653
I2
aI0
aI3
aF0.77564102564102555
aF1
aI123
a(lp654
I3
aI33
aaa(lp655
I1
aI0
aI26
aF0.66447368421052633
aF1
aI123
a(lp656
I26
aaa(lp657
I0
aI0
aI0
aI1
aI1
aI1
a(lp658
aa(lp659
I0
aI0
aI0
aI1
aI1
aI1
a(lp660
aa(lp661
I0
aI0
aI0
aI1
aI1
aI1
a(lp662
aa(lp663
I0
aI0
aI0
aI1
aI1
aI1
a(lp664
aa(lp665
I0
aI0
aI0
aI1
aI1
aI1
a(lp666
aa(lp667
I0
aI0
aI0
aI1
aI1
aI1
a(lp668
aa(lp669
I0
aI0
aI0
aI1
aI1
aI1
a(lp670
aa(lp671
I24
aI48
aI2
aF0.27485380116959063
aF0.33333333333333331
aI123
a(lp672
I2
aI3
aI4
aI5
aI6
aI7
aI8
aI9
aI10
aI11
aI12
aI13
aI14
aI15
aI16
aI17
aI19
aI20
aI21
aI22
aI23
aI24
aI25
aI26
aaa(lp673
I26
aI46
aI2
aF0.29184941520467839
aF0.3611111111111111
aI123
a(lp674
I2
aI3
aI4
aI5
aI6
aI7
aI8
aI9
aI10
aI11
aI12
aI14
aI15
aI16
aI17
aI18
aI19
aI20
aI21
aI22
aI23
aI24
aI25
aI26
aI27
aI28
aaa(lp675
I0
aI0
aI0
aI1
aI1
aI1
a(lp676
aa(lp677
I0
aI0
aI0
aI1
aI1
aI1
a(lp678
aa(lp679
I0
aI0
aI0
aI1
aI1
aI1
a(lp680
aa(lp681
I0
aI0
aI0
aI1
aI1
aI1
a(lp682
aa(lp683
I0
aI0
aI0
aI1
aI1
aI1
a(lp684
aa(lp685
I21
aI36
aI1
aF0.30831708901884336
aF0.36842105263157893
aI123
a(lp686
I1
aI2
aI3
aI4
aI6
aI7
aI8
aI9
aI10
aI13
aI14
aI16
aI17
aI18
aI19
aI20
aI22
aI23
aI24
aI25
aI27
aaa(lp687
I0
aI0
aI0
aI1
aI1
aI1
a(lp688
aa(lp689
I0
aI0
aI0
aI1
aI1
aI1
a(lp690
aa(lp691
I0
aI0
aI0
aI1
aI1
aI1
a(lp692
aa(lp693
I0
aI0
aI0
aI1
aI1
aI1
a(lp694
aa(lp695
I0
aI0
aI0
aI1
aI1
aI1
a(lp696
aa(lp697
I0
aI0
aI0
aI1
aI1
aI1
a(lp698
aa(lp699
I1
aI0
aI15
aF0.80666666666666675
aF1
aI123
a(lp700
I15
aaa(lp701
I2
aI0
aI33
aF0.5
aF1
aI123
a(lp702
I33
aI44
aaa(lp703
I0
aI1
aI0
aF0
aF0
aI123
a(lp704
aa(lp705
I0
aI1
aI0
aF0
aF0
aI123
a(lp706
aa(lp707
I1
aI1
aI1
aF0.49675324675324672
aF0.5
aI123
a(lp708
I1
aaa(lp709
I0
aI1
aI0
aF0
aF0
aI123
a(lp710
aa(lp711
I0
aI1
aI0
aF0
aF0
aI123
a(lp712
aa(lp713
I1
aI1
aI37
aF0.25986842105263153
aF0.5
aI123
a(lp714
I37
aaa(lp715
I0
aI1
aI0
aF0
aF0
aI123
a(lp716
aa(lp717
I1
aI1
aI23
aF0.35197368421052633
aF0.5
aI123
a(lp718
I23
aaa(lp719
I0
aI0
aI0
aI1
aI1
aI1
a(lp720
aa(lp721
I0
aI0
aI0
aI1
aI1
aI1
a(lp722
aa(lp723
I21
aI19
aI1
aF0.39630681818181823
aF0.52500000000000002
aI123
a(lp724
I1
aI2
aI3
aI4
aI5
aI6
aI7
aI8
aI9
aI10
aI11
aI12
aI13
aI14
aI15
aI16
aI18
aI19
aI20
aI21
aI23
aaa(lp725
I20
aI13
aI1
aF0.39712918660287083
aF0.60606060606060608
aI123
a(lp726
I1
aI2
aI5
aI6
aI8
aI18
aI25
aI27
aI28
aI30
aI31
aI32
aI33
aI34
aI35
aI37
aI43
aI44
aI47
aI48
aaa(lp727
I16
aI17
aI3
aF0.35526315789473684
aF0.48484848484848486
aI123
a(lp728
I3
aI4
aI5
aI6
aI7
aI8
aI23
aI24
aI25
aI26
aI27
aI28
aI29
aI31
aI40
aI47
aaa(lp729
I19
aI14
aI13
aF0.39050505050505058
aF0.5757575757575758
aI123
a(lp730
I13
aI15
aI16
aI17
aI18
aI19
aI20
aI23
aI24
aI25
aI26
aI27
aI28
aI29
aI30
aI31
aI34
aI36
aI37
aaa(lp731
I0
aI0
aI0
aI1
aI1
aI1
a(lp732
aa(lp733
I0
aI1
aI0
aF0
aF0
aI123
a(lp734
aa(lp735
I0
aI1
aI0
aF0
aF0
aI123
a(lp736
aa(lp737
I5
aI2
aI2
aF0.55069124423963134
aF0.7142857142857143
aI123
a(lp738
I2
aI5
aI8
aI9
aI14
aaa(lp739
I1
aI1
aI17
aF0.3914473684210526
aF0.5
aI123
a(lp740
I17
aaa(lp741
I0
aI1
aI0
aF0
aF0
aI123
a(lp742
aa(lp743
I0
aI1
aI0
aF0
aF0
aI123
a(lp744
aa(lp745
I0
aI1
aI0
aF0
aF0
aI123
a(lp746
aa(lp747
I0
aI1
aI0
aF0
aF0
aI123
a(lp748
aa(lp749
I5
aI1
aI40
aF0.37770562770562777
aF0.83333333333333337
aI123
a(lp750
I40
aI41
aI43
aI44
aI45
aaa(lp751
I24
aI19
aI1
aF0.42186862505099965
aF0.55813953488372092
aI123
a(lp752
I1
aI4
aI5
aI6
aI7
aI8
aI9
aI10
aI11
aI12
aI13
aI14
aI15
aI16
aI17
aI18
aI19
aI20
aI21
aI22
aI23
aI24
aI25
aI26
aaa(lp753
I32
aI16
aI1
aF0.51111111111111107
aF0.66666666666666663
aI123
a(lp754
I1
aI2
aI3
aI4
aI5
aI6
aI7
aI8
aI9
aI10
aI11
aI13
aI14
aI15
aI16
aI17
aI18
aI19
aI20
aI21
aI22
aI23
aI24
aI25
aI26
aI30
aI31
aI32
aI34
aI35
aI37
aI38
aaa(lp755
I19
aI29
aI3
aF0.30458333333333337
aF0.39583333333333331
aI123
a(lp756
I3
aI9
aI11
aI12
aI13
aI14
aI15
aI16
aI17
aI18
aI19
aI20
aI21
aI22
aI23
aI24
aI26
aI27
aI28
aaa(lp757
I36
aI12
aI1
aF0.55153508771929827
aF0.75
aI123
a(lp758
I1
aI2
aI3
aI4
aI5
aI6
aI7
aI8
aI9
aI10
aI11
aI12
aI13
aI14
aI15
aI16
aI17
aI22
aI23
aI24
aI25
aI26
aI27
aI28
aI29
aI30
aI31
aI32
aI33
aI34
aI35
aI36
aI37
aI38
aI39
aI40
aaa(lp759
I28
aI24
aI4
aF0.39469981238273916
aF0.53846153846153844
aI123
a(lp760
I4
aI10
aI11
aI12
aI13
aI14
aI15
aI16
aI17
aI18
aI19
aI20
aI21
aI22
aI23
aI24
aI25
aI26
aI27
aI28
aI29
aI30
aI31
aI32
aI33
aI34
aI35
aI38
aaa(lp761
I20
aI31
aI1
aF0.32747644512350393
aF0.39215686274509803
aI123
a(lp762
I1
aI2
aI3
aI4
aI5
aI8
aI9
aI10
aI11
aI12
aI13
aI14
aI16
aI17
aI19
aI20
aI21
aI24
aI27
aI28
aaa(lp763
I19
aI30
aI1
aF0.33080529509100937
aF0.38775510204081631
aI123
a(lp764
I1
aI2
aI3
aI4
aI5
aI6
aI7
aI8
aI9
aI10
aI12
aI13
aI15
aI17
aI18
aI20
aI21
aI22
aI23
aaa(lp765
I29
aI16
aI7
aF0.45297906602254429
aF0.64444444444444449
aI123
a(lp766
I7
aI8
aI9
aI10
aI11
aI12
aI13
aI14
aI15
aI16
aI17
aI18
aI19
aI20
aI21
aI22
aI23
aI24
aI25
aI26
aI27
aI28
aI29
aI30
aI31
aI32
aI33
aI34
aI35
aaa(lp767
I1
aI1
aI15
aF0.24107142857142858
aF0.5
aI123
a(lp768
I15
aaa(lp769
I16
aI1
aI2
aF0.65257352941176472
aF0.94117647058823528
aI123
a(lp770
I2
aI4
aI9
aI10
aI13
aI32
aI34
aI36
aI37
aI39
aI40
aI42
aI43
aI44
aI45
aI49
aaa(lp771
I2
aI0
aI22
aF0.65384615384615374
aF1
aI123
a(lp772
I22
aI33
aaa(lp773
I1
aI0
aI30
aF0.61688311688311681
aF1
aI123
a(lp774
I30
aaa(lp775
I2
aI0
aI1
aF0.71153846153846145
aF1
aI123
a(lp776
I1
aI45
aaa(lp777
I1
aI2
aI1
aF0.33108108108108103
aF0.33333333333333331
aI123
a(lp778
I1
aaa(lp779
I1
aI2
aI21
aF0.24999999999999997
aF0.33333333333333331
aI123
a(lp780
I21
aaa(lp781
I2
aI1
aI7
aF0.45833333333333331
aF0.66666666666666663
aI123
a(lp782
I7
aI9
aaa(lp783
I11
aI4
aI1
aF0.60357142857142854
aF0.73333333333333328
aI123
a(lp784
I1
aI2
aI3
aI11
aI13
aI14
aI19
aI20
aI21
aI31
aI34
aaa(lp785
I1
aI0
aI1
aF0.99358974358974361
aF1
aI123
a(lp786
I1
aaa(lp787
I2
aI0
aI13
aF0.77922077922077915
aF1
aI123
a(lp788
I13
aI22
aaa(lp789
I1
aI0
aI1
aF0.99358974358974361
aF1
aI123
a(lp790
I1
aaa(lp791
I1
aI0
aI11
aF0.86363636363636365
aF1
aI123
a(lp792
I11
aaa(lp793
I3
aI0
aI1
aF0.8628691983122363
aF1
aI123
a(lp794
I1
aI6
aI27
aaa(lp795
I1
aI0
aI6
aF0.81666666666666676
aF1
aI123
a(lp796
I6
aaa(lp797
I2
aI0
aI2
aF0.9358974358974359
aF1
aI123
a(lp798
I2
aI9
aaa(lp799
I1
aI1
aI1
aF0.49679487179487181
aF0.5
aI123
a(lp800
I1
aaa(lp801
I1
aI0
aI1
aF0.99350649350649345
aF1
aI123
a(lp802
I1
aaa(lp803
I2
aI1
aI1
aF0.62393162393162394
aF0.66666666666666663
aI123
a(lp804
I1
aI10
aaa(lp805
I1
aI0
aI10
aF0.83333333333333337
aF1
aI123
a(lp806
I10
aaa(lp807
I0
aI0
aI0
aI1
aI1
aI1
a(lp808
aa(lp809
I0
aI0
aI0
aI1
aI1
aI1
a(lp810
aa(lp811
I1
aI0
aI2
aF0.98076923076923073
aF1
aI123
a(lp812
I2
aaa(lp813
I2
aI0
aI1
aF0.67948717948717952
aF1
aI123
a(lp814
I1
aI50
aaa(lp815
I1
aI0
aI1
aF0.99367088607594944
aF1
aI123
a(lp816
I1
aaa(lp817
I1
aI0
aI1
aF0.99358974358974361
aF1
aI123
a(lp818
I1
aaa(lp819
I1
aI1
aI7
aF0.45723684210526316
aF0.5
aI123
a(lp820
I7
aaa(lp821
I0
aI0
aI0
aI1
aI1
aI1
a(lp822
aa(lp823
I0
aI2
aI0
aF0
aF0
aI123
a(lp824
aa(lp825
I41
aI16
aI2
aF0.48864147548358078
aF0.7192982456140351
aI123
a(lp826
I2
aI3
aI4
aI5
aI6
aI7
aI8
aI10
aI11
aI12
aI13
aI15
aI16
aI17
aI18
aI19
aI20
aI22
aI23
aI24
aI26
aI27
aI28
aI29
aI30
aI31
aI32
aI33
aI34
aI36
aI37
aI38
aI40
aI42
aI43
aI44
aI46
aI47
aI48
aI49
aI51
aaasS'env'
p827
S'paintcontrol'
p828
sS'action_size'
p829
I100
sS'hidden_size'
p830
I0
sS'ttf'
p831
(lp832
I0
aI0
aI0
aI4
aI0
aI0
aI0
aI12
aI0
aI3
aI9
aI25
aI0
aI4
aI0
aI0
aI10
aI0
aI0
aI0
aI0
aI0
aI1
aI0
aI0
aI0
aI0
aI0
aI0
aI0
aI17
aI20
aI1
aI1
aI1
aI1
aI0
aI3
aI0
aI2
aI45
aI2
aI0
aI0
aI7
aI0
aI0
aI0
aI0
aI11
aI1
aI1
aI0
aI0
aI0
aI0
aI0
aI0
aI0
aI0
aI18
aI41
aI10
aI0
aI3
aI0
aI11
aI0
aI0
aI0
aI0
aI0
aI0
aI0
aI0
aI0
aI0
aI15
aI0
aI18
aI0
aI0
aI1
aI1
aI1
aI1
aI0
aI0
aI31
aI27
aI0
aI0
aI0
aI0
aI0
aI0
aI0
aI1
aI1
aI2
aI2
aI1
aI1
aI8
aI0
aI0
aI0
aI0
aI38
aI1
aI0
aI0
aI0
aI3
aI26
aI0
aI0
aI0
aI0
aI0
aI0
aI0
aI2
aI2
aI0
aI0
aI0
aI0
aI0
aI1
aI0
aI0
aI0
aI0
aI0
aI0
aI15
aI33
aI0
aI0
aI1
aI0
aI0
aI37
aI0
aI23
aI0
aI0
aI1
aI1
aI3
aI13
aI0
aI0
aI0
aI2
aI17
aI0
aI0
aI0
aI0
aI40
aI1
aI1
aI3
aI1
aI4
aI1
aI1
aI7
aI15
aI2
aI22
aI30
aI1
aI1
aI21
aI7
aI1
aI1
aI13
aI1
aI11
aI1
aI6
aI2
aI1
aI1
aI1
aI10
aI0
aI0
aI2
aI1
aI1
aI1
aI7
aI0
aI0
aI2
asS'napfd'
p833
(lp834
I1
aI1
aF0
aF0.93965517241379304
aI1
aI1
aF0
aF0.62903225806451613
aI1
aF0.40833333333333338
aF0.63983050847457623
aF0.34135802469135806
aF0
aF0.87037037037037035
aI1
aI1
aF0.51010101010101006
aF0
aI1
aI1
aI1
aI1
aF0.77272727272727271
aF0
aI1
aI1
aI1
aI1
aI1
aF0
aF0.13529411764705884
aF0.3857954545454545
aF0.57964601769911506
aF0.40163398692810459
aF0.40429093122337184
aF0.34334845049130763
aI1
aF0.51975806451612894
aF0
aF0.41265161725067379
aF0.39039408866995073
aF0.94827586206896552
aI1
aI1
aF0.54391891891891886
aI1
aI1
aI1
aI1
aF0.89805825242718451
aF0.38578901482127298
aF0.33067632850241552
aI1
aI1
aF0
aI1
aI1
aI1
aI1
aI1
aF0.7635135135135136
aF0.42957746478873238
aF0.875
aF0
aF0.51041666666666663
aF0
aF0.42905405405405406
aF0
aI1
aI1
aI1
aI1
aI1
aI1
aI1
aI1
aI1
aF0.58571428571428563
aI1
aF0.7635135135135136
aI1
aI1
aF0.57143522833178007
aF0.36815193571950333
aF0.375
aF0.38814828341855362
aI1
aI1
aF0.29934210526315785
aF0.15953947368421051
aI1
aI1
aI1
aF0
aI1
aI1
aI1
aF0.29851851851851852
aF0.487719298245614
aF0.38777089783281737
aF0.37691885964912275
aF0.29422514619883039
aF0.43421052631578949
aF0.23161764705882354
aI1
aI1
aI1
aF0
aF0.50657894736842102
aF0.99342105263157887
aF0
aI1
aI1
aF0.77564102564102555
aF0.66447368421052633
aI1
aI1
aI1
aI1
aI1
aI1
aI1
aF0.27485380116959063
aF0.29184941520467839
aI1
aI1
aI1
aI1
aI1
aF0.30831708901884336
aI1
aI1
aI1
aI1
aI1
aI1
aF0.80666666666666675
aF0.5
aF0
aF0
aF0.49675324675324672
aF0
aF0
aF0.25986842105263153
aF0
aF0.35197368421052633
aI1
aI1
aF0.39630681818181823
aF0.39712918660287083
aF0.35526315789473684
aF0.39050505050505058
aI1
aF0
aF0
aF0.55069124423963134
aF0.3914473684210526
aF0
aF0
aF0
aF0
aF0.37770562770562777
aF0.42186862505099965
aF0.51111111111111107
aF0.30458333333333337
aF0.55153508771929827
aF0.39469981238273916
aF0.32747644512350393
aF0.33080529509100937
aF0.45297906602254429
aF0.24107142857142858
aF0.65257352941176472
aF0.65384615384615374
aF0.61688311688311681
aF0.71153846153846145
aF0.33108108108108103
aF0.24999999999999997
aF0.45833333333333331
aF0.60357142857142854
aF0.99358974358974361
aF0.77922077922077915
aF0.99358974358974361
aF0.86363636363636365
aF0.8628691983122363
aF0.81666666666666676
aF0.9358974358974359
aF0.49679487179487181
aF0.99350649350649345
aF0.62393162393162394
aF0.83333333333333337
aI1
aI1
aF0.98076923076923073
aF0.67948717948717952
aF0.99367088607594944
aF0.99358974358974361
aF0.45723684210526316
aI1
aF0
aF0.48864147548358078
asS'rewardfun'
p835
S'timerank'
p836
s.