(dp1
S'avg_precision'
p2
(lp3
I1
aI1
aI123
aI123
aI1
aI1
aI123
aI123
aI1
aI123
aI123
aI123
aI123
aI123
aI1
aI1
aI123
aI123
aI1
aI1
aI1
aI1
aI123
aI123
aI1
aI1
aI1
aI1
aI1
aI123
aI123
aI123
aI123
aI123
aI123
aI123
aI1
aI123
aI123
aI123
aI123
aI123
aI1
aI1
aI123
aI1
aI1
aI1
aI1
aI123
aI123
aI123
aI1
aI1
aI123
aI1
aI1
aI1
aI1
aI1
aI123
aI123
aI123
aI123
aI123
aI123
aI123
aI123
aI1
aI1
aI1
aI1
aI1
aI1
aI1
aI1
aI1
aI123
aI1
aI123
aI1
aI1
aI123
aI123
aI123
aI123
aI1
aI1
aI123
aI123
aI1
aI1
aI1
aI123
aI1
aI1
aI1
aI123
aI123
aI123
asS'rewards'
p4
(lp5
cnumpy.core.multiarray
scalar
p6
(cnumpy
dtype
p7
(S'f8'
I0
I1
tRp8
(I3
S'<'
NNNI-1
I-1
I0
tbS'\x00\x00\x00\x00\x00\x00\x00\x00'
tRp9
ag6
(g8
S'\x00\x00\x00\x00\x00\x00\x00\x00'
tRp10
ag6
(g8
S'\x00\x00\x00\x00\x00\x00\x00\x00'
tRp11
ag6
(g8
S'\x00\x00\x00\x00\x00\x00\x00\x00'
tRp12
ag6
(g8
S'\x00\x00\x00\x00\x00\x00\x00\x00'
tRp13
ag6
(g8
S'\x00\x00\x00\x00\x00\x00\x00\x00'
tRp14
ag6
(g8
S'\x00\x00\x00\x00\x00\x00\x00\x00'
tRp15
ag6
(g8
S'\x00\x00\x00\x00\x00\x00\x00\x00'
tRp16
ag6
(g8
S'\x00\x00\x00\x00\x00\x00\x00\x00'
tRp17
ag6
(g8
S'\x00\x00\x00\x00\x00\x00\x00\x00'
tRp18
ag6
(g8
S"\r'u_\x1e[\x91?"
tRp19
ag6
(g8
S'\x11\x11\x11\x11\x11\x11\xa1?'
tRp20
ag6
(g8
S'\x00\x00\x00\x00\x00\x00\x00\x00'
tRp21
ag6
(g8
S'\x00\x00\x00\x00\x00\x00\x00\x00'
tRp22
ag6
(g8
S'\x00\x00\x00\x00\x00\x00\x00\x00'
tRp23
ag6
(g8
S'\x00\x00\x00\x00\x00\x00\x00\x00'
tRp24
ag6
(g8
S'\x00\x00\x00\x00\x00\x00\x00\x00'
tRp25
ag6
(g8
S'\x00\x00\x00\x00\x00\x00\x00\x00'
tRp26
ag6
(g8
S'\x00\x00\x00\x00\x00\x00\x00\x00'
tRp27
ag6
(g8
S'\x00\x00\x00\x00\x00\x00\x00\x00'
tRp28
ag6
(g8
S'\x00\x00\x00\x00\x00\x00\x00\x00'
tRp29
ag6
(g8
S'\x00\x00\x00\x00\x00\x00\x00\x00'
tRp30
ag6
(g8
S'\x00\x00\x00\x00\x00\x00\x00\x00'
tRp31
ag6
(g8
S'\x00\x00\x00\x00\x00\x00\x00\x00'
tRp32
ag6
(g8
S'\x00\x00\x00\x00\x00\x00\x00\x00'
tRp33
ag6
(g8
S'\x00\x00\x00\x00\x00\x00\x00\x00'
tRp34
ag6
(g8
S'\x00\x00\x00\x00\x00\x00\x00\x00'
tRp35
ag6
(g8
S'\x00\x00\x00\x00\x00\x00\x00\x00'
tRp36
ag6
(g8
S'\x00\x00\x00\x00\x00\x00\x00\x00'
tRp37
ag6
(g8
S'\x00\x00\x00\x00\x00\x00\x00\x00'
tRp38
ag6
(g8
S'\x00\x00\x00\x00\x00\x00\x00\x00'
tRp39
ag6
(g8
S'\x9a\x99\x99\x99\x99\x99y?'
tRp40
ag6
(g8
S'4\xf9\xb2A\x93/\x9b?'
tRp41
ag6
(g8
S'\x00\x00\x00\x00\x00\x00\xd0?'
tRp42
ag6
(g8
S'\x8c1\xc6\x18c\x8c\xd1?'
tRp43
ag6
(g8
S'UUUUUU\xd5?'
tRp44
ag6
(g8
S'\x00\x00\x00\x00\x00\x00\x00\x00'
tRp45
ag6
(g8
S'\x84\x10B\x08!\x84\xa0?'
tRp46
ag6
(g8
S'\xf4\x05}A_\xd0\x97?'
tRp47
ag6
(g8
S'%I\x92$I\x92\xcc?'
tRp48
ag6
(g8
S'\x00\x00\x00\x00\x00\x00\x00\x00'
tRp49
ag6
(g8
S'\x96{\x1aa\xb9\xa7\xa1?'
tRp50
ag6
(g8
S'\x00\x00\x00\x00\x00\x00\x00\x00'
tRp51
ag6
(g8
S'\x00\x00\x00\x00\x00\x00\x00\x00'
tRp52
ag6
(g8
S'\xd0\xba\xc1\x14\xf9\xac\x9b?'
tRp53
ag6
(g8
S'\x00\x00\x00\x00\x00\x00\x00\x00'
tRp54
ag6
(g8
S'\x00\x00\x00\x00\x00\x00\x00\x00'
tRp55
ag6
(g8
S'\x00\x00\x00\x00\x00\x00\x00\x00'
tRp56
ag6
(g8
S'\x00\x00\x00\x00\x00\x00\x00\x00'
tRp57
ag6
(g8
S'\x02\xa9\xe4\xbc,\xe2\x83?'
tRp58
ag6
(g8
S'\xd0\xba\xc1\x14\xf9\xac\xbb?'
tRp59
ag6
(g8
S'\xa0Q\xe2g\x94\xf8\xb9?'
tRp60
ag6
(g8
S'\x00\x00\x00\x00\x00\x00\x00\x00'
tRp61
ag6
(g8
S'\x00\x00\x00\x00\x00\x00\x00\x00'
tRp62
ag6
(g8
S'\x00\x00\x00\x00\x00\x00\x00\x00'
tRp63
ag6
(g8
S'\x00\x00\x00\x00\x00\x00\x00\x00'
tRp64
ag6
(g8
S'\x00\x00\x00\x00\x00\x00\x00\x00'
tRp65
ag6
(g8
S'\x00\x00\x00\x00\x00\x00\x00\x00'
tRp66
ag6
(g8
S'\x00\x00\x00\x00\x00\x00\x00\x00'
tRp67
ag6
(g8
S'\x00\x00\x00\x00\x00\x00\x00\x00'
tRp68
ag6
(g8
S'\x00\x00\x00\x00\x00\x00\x00\x00'
tRp69
ag6
(g8
S'\x00\x00\x00\x00\x00\x00\x00\x00'
tRp70
ag6
(g8
S'\x00\x00\x00\x00\x00\x00\x00\x00'
tRp71
ag6
(g8
S'\x00\x00\x00\x00\x00\x00\x00\x00'
tRp72
ag6
(g8
S'\x00\x00\x00\x00\x00\x00\xa0?'
tRp73
ag6
(g8
S'\x00\x00\x00\x00\x00\x00\x00\x00'
tRp74
ag6
(g8
S'\x00\x00\x00\x00\x00\x00\x00\x00'
tRp75
ag6
(g8
S'\x00\x00\x00\x00\x00\x00\x00\x00'
tRp76
ag6
(g8
S'\x00\x00\x00\x00\x00\x00\x00\x00'
tRp77
ag6
(g8
S'\x00\x00\x00\x00\x00\x00\x00\x00'
tRp78
ag6
(g8
S'\x00\x00\x00\x00\x00\x00\x00\x00'
tRp79
ag6
(g8
S'\x00\x00\x00\x00\x00\x00\x00\x00'
tRp80
ag6
(g8
S'\x00\x00\x00\x00\x00\x00\x00\x00'
tRp81
ag6
(g8
S'\x00\x00\x00\x00\x00\x00\x00\x00'
tRp82
ag6
(g8
S'\x00\x00\x00\x00\x00\x00\x00\x00'
tRp83
ag6
(g8
S'\x00\x00\x00\x00\x00\x00\x00\x00'
tRp84
ag6
(g8
S'\x00\x00\x00\x00\x00\x00\x00\x00'
tRp85
ag6
(g8
S'\x1d\xd4A\x1d\xd4A\x9d?'
tRp86
ag6
(g8
S'\x00\x00\x00\x00\x00\x00\x00\x00'
tRp87
ag6
(g8
S'\x00\x00\x00\x00\x00\x00\x00\x00'
tRp88
ag6
(g8
S'\x00\x00\x00\x00\x00\x00\x00\x00'
tRp89
ag6
(g8
S'\x00\x00\x00\x00\x00\x00\x00\x00'
tRp90
ag6
(g8
S'\xd0\xeaK\x05\xad\xbe\xd4?'
tRp91
ag6
(g8
S'\xf2Y7\x98"\x9f\xd5?'
tRp92
ag6
(g8
S'\x1cL\x91\xcf\xba\xc1\xd4?'
tRp93
ag6
(g8
S'\x1cL\x91\xcf\xba\xc1\xd4?'
tRp94
ag6
(g8
S'\x00\x00\x00\x00\x00\x00\x00\x00'
tRp95
ag6
(g8
S'\x00\x00\x00\x00\x00\x00\x00\x00'
tRp96
ag6
(g8
S'(\xaf\xa1\xbc\x86\xf2\x9a?'
tRp97
ag6
(g8
S'(\xaf\xa1\xbc\x86\xf2\x9a?'
tRp98
ag6
(g8
S'\x00\x00\x00\x00\x00\x00\x00\x00'
tRp99
ag6
(g8
S'\x00\x00\x00\x00\x00\x00\x00\x00'
tRp100
ag6
(g8
S'\x00\x00\x00\x00\x00\x00\x00\x00'
tRp101
ag6
(g8
S'\x00\x00\x00\x00\x00\x00\x00\x00'
tRp102
ag6
(g8
S'\x00\x00\x00\x00\x00\x00\x00\x00'
tRp103
ag6
(g8
S'\x00\x00\x00\x00\x00\x00\x00\x00'
tRp104
ag6
(g8
S'\x00\x00\x00\x00\x00\x00\x00\x00'
tRp105
ag6
(g8
S'UUUUUU\xd5?'
tRp106
ag6
(g8
S'(\xaf\xa1\xbc\x86\xf2\xda?'
tRp107
ag6
(g8
S'Lg1\x9d\xc5t\xc6?'
tRp108
asS'missed'
p109
(lp110
I0
aI0
aI1
aI1
aI0
aI0
aI1
aI1
aI0
aI4
aI3
aI6
aI1
aI1
aI0
aI0
aI3
aI1
aI0
aI0
aI0
aI0
aI4
aI1
aI0
aI0
aI0
aI0
aI0
aI1
aI5
aI10
aI2
aI36
aI36
aI31
aI0
aI6
aI0
aI28
aI2
aI0
aI0
aI0
aI6
aI0
aI0
aI0
aI0
aI0
aI23
aI23
aI0
aI0
aI1
aI0
aI0
aI0
aI0
aI0
aI1
aI1
aI1
aI1
aI2
aI1
aI2
aI1
aI0
aI0
aI0
aI0
aI0
aI0
aI0
aI0
aI0
aI0
aI0
aI1
aI0
aI0
aI27
aI49
aI50
aI50
aI0
aI0
aI0
aI6
aI0
aI0
aI0
aI1
aI0
aI0
aI0
aI47
aI7
aI24
asS'history_length'
p111
I4
sS'recall'
p112
(lp113
I1
aI1
aF0
aF0
aI1
aI1
aF0
aF0
aI1
aF0
aF0.25
aF0.33333333333333331
aF0
aF0
aI1
aI1
aF0
aF0
aI1
aI1
aI1
aI1
aF0
aF0
aI1
aI1
aI1
aI1
aI1
aF0
aF0
aF0.090909090909090912
aF0.59999999999999998
aF0.29411764705882354
aF0.32075471698113206
aF0.36734693877551022
aI1
aF0.40000000000000002
aF1
aF0.47169811320754718
aF0
aF1
aI1
aI1
aF0.25
aI1
aI1
aI1
aI1
aF1
aF0.25806451612903225
aF0.23333333333333334
aI1
aI1
aF0
aI1
aI1
aI1
aI1
aI1
aF0
aF0
aF0
aF0
aF0.33333333333333331
aF0
aF0
aF0
aI1
aI1
aI1
aI1
aI1
aI1
aI1
aI1
aI1
aF1
aI1
aF0
aI1
aI1
aF0.63513513513513509
aF0.33783783783783783
aF0.32432432432432434
aF0.32432432432432434
aI1
aI1
aF1
aF0.25
aI1
aI1
aI1
aF0
aI1
aI1
aI1
aF0.34722222222222221
aF0.53333333333333333
aF0.29411764705882354
asS'durations'
p114
(lp115
F0.22866988182067871
aF0.0003070831298828125
aF0.02889704704284668
aF0.036113977432250977
aF0.013283967971801758
aF0.0084729194641113281
aF0.0091280937194824219
aF0.026890993118286133
aF0.031183958053588867
aF0.035759210586547852
aF0.033864021301269531
aF0.063421010971069336
aF0.017324924468994141
aF0.014271020889282227
aF0.48170900344848633
aF0.015806913375854492
aF0.01882481575012207
aF0.019523143768310547
aF0.0188140869140625
aF0.036345005035400391
aF0.019423007965087891
aF0.016323089599609375
aF0.020910024642944336
aF0.018935918807983398
aF0.053185939788818359
aF0.023153066635131836
aF0.021626949310302734
aF0.022532939910888672
aF0.022268056869506836
aF0.051819086074829102
aF0.029242992401123047
aF0.10752201080322266
aF0.067167043685913086
aF0.041927099227905273
aF0.080023050308227539
aF0.035948991775512695
aF0.00071692466735839844
aF0.096240043640136719
aF0.03675389289855957
aF0.1340639591217041
aF0.14209818840026855
aF0.019370079040527344
aF0.0015289783477783203
aF0.052481174468994141
aF0.089833974838256836
aF0.052164793014526367
aF0.045752048492431641
aF0.031328916549682617
aF0.043747901916503906
aF0.089622974395751953
aF0.052197933197021484
aF0.061887025833129883
aF0.028759002685546875
aF0.047903060913085938
aF0.09081578254699707
aF0.051473855972290039
aF0.049547910690307617
aF0.045747041702270508
aF0.051643133163452148
aF0.10761094093322754
aF0.053755998611450195
aF0.047857999801635742
aF0.054825067520141602
aF0.043541908264160156
aF0.079380989074707031
aF0.039317131042480469
aF0.057480096817016602
aF0.050784826278686523
aF0.042238950729370117
aF0.075788021087646484
aF0.051317930221557617
aF0.05205082893371582
aF0.050919055938720703
aF0.058896064758300781
aF0.082484960556030273
aF0.046177148818969727
aF0.051315069198608398
aF0.024441957473754883
aF0.0012090206146240234
aF0.084157943725585938
aF0.062741994857788086
aF0.050618886947631836
aF0.12469601631164551
aF0.037373065948486328
aF0.06082606315612793
aF0.034094095230102539
aF0.053905963897705078
aF0.042289018630981445
aF0.052376031875610352
aF0.079965114593505859
aF0.046998023986816406
aF0.046923160552978516
aF0.047126054763793945
aF0.05002903938293457
aF0.084498882293701172
aF0.05722498893737793
aF0.047338962554931641
aF0.075550079345703125
aF0.017797946929931641
aF0.091661930084228516
asS'step'
p116
(lp117
I1
aI2
aI3
aI4
aI5
aI6
aI7
aI8
aI9
aI10
aI11
aI12
aI13
aI14
aI15
aI16
aI17
aI18
aI19
aI20
aI21
aI22
aI23
aI24
aI25
aI26
aI27
aI28
aI29
aI30
aI31
aI32
aI33
aI34
aI35
aI36
aI37
aI38
aI39
aI40
aI41
aI42
aI43
aI44
aI45
aI46
aI47
aI48
aI49
aI50
aI51
aI52
aI53
aI54
aI55
aI56
aI57
aI58
aI59
aI60
aI61
aI62
aI63
aI64
aI65
aI66
aI67
aI68
aI69
aI70
aI71
aI72
aI73
aI74
aI75
aI76
aI77
aI78
aI79
aI80
aI81
aI82
aI83
aI84
aI85
aI86
aI87
aI88
aI89
aI90
aI91
aI92
aI93
aI94
aI95
aI96
aI97
aI98
aI99
aI100
asS'agent'
p118
S'mlpclassifier'
p119
sS'sched_time'
p120
F0.5
sS'scenarios'
p121
(lp122
S'2016-01-13T09:17:00'
p123
aS'2016-01-13T10:39:00'
p124
aS'2016-01-14T12:15:00'
p125
aS'2016-01-15T09:50:00'
p126
aS'2016-01-16T00:22:00'
p127
aS'2016-01-17T00:21:00'
p128
aS'2016-01-18T00:19:00'
p129
aS'2016-01-19T00:15:00'
p130
aS'2016-01-20T00:13:00'
p131
aS'2016-01-21T00:12:00'
p132
aS'2016-01-22T00:11:00'
p133
aS'2016-01-23T00:09:00'
p134
aS'2016-01-24T00:09:00'
p135
aS'2016-01-25T00:08:00'
p136
aS'2016-01-26T00:07:00'
p137
aS'2016-01-27T00:06:00'
p138
aS'2016-01-28T00:04:00'
p139
aS'2016-01-29T00:04:00'
p140
aS'2016-01-30T00:04:00'
p141
aS'2016-01-31T00:02:00'
p142
aS'2016-02-01T00:01:00'
p143
aS'2016-02-02T00:01:00'
p144
aS'2016-02-02T23:57:00'
p145
aS'2016-02-03T23:56:00'
p146
aS'2016-02-04T23:55:00'
p147
aS'2016-02-05T23:53:00'
p148
aS'2016-02-06T23:53:00'
p149
aS'2016-02-07T23:52:00'
p150
aS'2016-02-08T23:50:00'
p151
aS'2016-02-09T23:48:00'
p152
aS'2016-02-10T23:47:00'
p153
aS'2016-02-11T23:46:00'
p154
aS'2016-02-12T23:42:00'
p155
aS'2016-02-13T23:41:00'
p156
aS'2016-02-14T23:41:00'
p157
aS'2016-02-15T23:41:00'
p158
aS'2016-02-16T00:49:00'
p159
aS'2016-02-17T08:55:00'
p160
aS'2016-02-18T02:45:00'
p161
aS'2016-02-19T02:45:00'
p162
aS'2016-02-20T02:18:00'
p163
aS'2016-02-21T02:18:00'
p164
aS'2016-02-22T00:29:00'
p165
aS'2016-02-23T07:56:00'
p166
aS'2016-02-24T03:00:00'
p167
aS'2016-02-25T02:18:00'
p168
aS'2016-02-26T02:15:00'
p169
aS'2016-02-27T02:14:00'
p170
aS'2016-02-28T02:14:00'
p171
aS'2016-02-29T02:14:00'
p172
aS'2016-03-01T00:43:00'
p173
aS'2016-03-02T00:16:00'
p174
aS'2016-03-03T00:15:00'
p175
aS'2016-03-04T00:10:00'
p176
aS'2016-03-05T00:09:00'
p177
aS'2016-03-06T00:05:00'
p178
aS'2016-03-06T23:59:00'
p179
aS'2016-03-07T23:59:00'
p180
aS'2016-03-08T23:54:00'
p181
aS'2016-03-09T23:54:00'
p182
aS'2016-03-10T21:55:00'
p183
aS'2016-03-11T21:52:00'
p184
aS'2016-03-12T21:51:00'
p185
aS'2016-03-13T21:51:00'
p186
aS'2016-03-14T21:51:00'
p187
aS'2016-03-15T19:52:00'
p188
aS'2016-03-16T19:52:00'
p189
aS'2016-03-17T19:52:00'
p190
aS'2016-03-18T19:51:00'
p191
aS'2016-03-19T19:51:00'
p192
aS'2016-03-20T19:50:00'
p193
aS'2016-03-21T19:50:00'
p194
aS'2016-03-22T19:49:00'
p195
aS'2016-03-23T19:48:00'
p196
aS'2016-03-24T19:48:00'
p197
aS'2016-03-25T19:47:00'
p198
aS'2016-03-26T19:46:00'
p199
aS'2016-03-27T19:45:00'
p200
aS'2016-03-28T18:02:00'
p201
aS'2016-03-29T18:02:00'
p202
aS'2016-03-30T18:02:00'
p203
aS'2016-03-31T18:02:00'
p204
aS'2016-04-01T18:02:00'
p205
aS'2016-04-02T18:01:00'
p206
aS'2016-04-03T18:00:00'
p207
aS'2016-04-04T18:00:00'
p208
aS'2016-04-05T18:00:00'
p209
aS'2016-04-06T18:00:00'
p210
aS'2016-04-07T18:00:00'
p211
aS'2016-04-08T18:00:00'
p212
aS'2016-04-09T18:00:00'
p213
aS'2016-04-10T18:00:00'
p214
aS'2016-04-11T18:00:00'
p215
aS'2016-04-12T18:00:00'
p216
aS'2016-04-13T18:00:00'
p217
aS'2016-04-14T18:00:00'
p218
aS'2016-04-15T18:00:00'
p219
aS'2016-04-16T18:00:00'
p220
aS'2016-04-16T18:40:00'
p221
aS'2016-04-17T18:39:00'
p222
asS'detected'
p223
(lp224
I0
aI0
aI0
aI0
aI0
aI0
aI0
aI0
aI0
aI0
aI1
aI3
aI0
aI0
aI0
aI0
aI0
aI0
aI0
aI0
aI0
aI0
aI0
aI0
aI0
aI0
aI0
aI0
aI0
aI0
aI0
aI1
aI3
aI15
aI17
aI18
aI0
aI4
aI1
aI25
aI0
aI1
aI0
aI0
aI2
aI0
aI0
aI0
aI0
aI1
aI8
aI7
aI0
aI0
aI0
aI0
aI0
aI0
aI0
aI0
aI0
aI0
aI0
aI0
aI1
aI0
aI0
aI0
aI0
aI0
aI0
aI0
aI0
aI0
aI0
aI0
aI0
aI1
aI0
aI0
aI0
aI0
aI47
aI25
aI24
aI24
aI0
aI0
aI2
aI2
aI0
aI0
aI0
aI0
aI0
aI0
aI0
aI25
aI8
aI10
asS'result'
p225
(lp226
(lp227
I0
aI0
aI0
aI1
aI1
aI1
a(lp228
aa(lp229
I0
aI0
aI0
aI1
aI1
aI1
a(lp230
aa(lp231
I0
aI1
aI0
aF0
aF0
aI123
a(lp232
aa(lp233
I0
aI1
aI0
aF0
aF0
aI123
a(lp234
aa(lp235
I0
aI0
aI0
aI1
aI1
aI1
a(lp236
aa(lp237
I0
aI0
aI0
aI1
aI1
aI1
a(lp238
aa(lp239
I0
aI1
aI0
aF0
aF0
aI123
a(lp240
aa(lp241
I0
aI1
aI0
aF0
aF0
aI123
a(lp242
aa(lp243
I0
aI0
aI0
aI1
aI1
aI1
a(lp244
aa(lp245
I0
aI4
aI0
aF0
aF0
aI123
a(lp246
aa(lp247
I1
aI3
aI22
aF0.15889830508474576
aF0.25
aI123
a(lp248
I22
aaa(lp249
I3
aI6
aI1
aF0.32283950617283946
aF0.33333333333333331
aI123
a(lp250
I1
aI4
aI5
aaa(lp251
I0
aI1
aI0
aF0
aF0
aI123
a(lp252
aa(lp253
I0
aI1
aI0
aF0
aF0
aI123
a(lp254
aa(lp255
I0
aI0
aI0
aI1
aI1
aI1
a(lp256
aa(lp257
I0
aI0
aI0
aI1
aI1
aI1
a(lp258
aa(lp259
I0
aI3
aI0
aF0
aF0
aI123
a(lp260
aa(lp261
I0
aI1
aI0
aF0
aF0
aI123
a(lp262
aa(lp263
I0
aI0
aI0
aI1
aI1
aI1
a(lp264
aa(lp265
I0
aI0
aI0
aI1
aI1
aI1
a(lp266
aa(lp267
I0
aI0
aI0
aI1
aI1
aI1
a(lp268
aa(lp269
I0
aI0
aI0
aI1
aI1
aI1
a(lp270
aa(lp271
I0
aI4
aI0
aF0
aF0
aI123
a(lp272
aa(lp273
I0
aI1
aI0
aF0
aF0
aI123
a(lp274
aa(lp275
I0
aI0
aI0
aI1
aI1
aI1
a(lp276
aa(lp277
I0
aI0
aI0
aI1
aI1
aI1
a(lp278
aa(lp279
I0
aI0
aI0
aI1
aI1
aI1
a(lp280
aa(lp281
I0
aI0
aI0
aI1
aI1
aI1
a(lp282
aa(lp283
I0
aI0
aI0
aI1
aI1
aI1
a(lp284
aa(lp285
I0
aI1
aI0
aF0
aF0
aI123
a(lp286
aa(lp287
I0
aI5
aI0
aF0
aF0
aI123
a(lp288
aa(lp289
I1
aI10
aI49
aF0.063352272727272743
aF0.090909090909090912
aI123
a(lp290
I49
aaa(lp291
I3
aI2
aI3
aF0.57787610619469032
aF0.59999999999999998
aI123
a(lp292
I3
aI5
aI6
aaa(lp293
I15
aI36
aI4
aF0.23415032679738562
aF0.29411764705882354
aI123
a(lp294
I4
aI6
aI7
aI9
aI10
aI11
aI12
aI13
aI14
aI15
aI16
aI17
aI18
aI19
aI20
aaa(lp295
I17
aI36
aI4
aF0.2518259281801582
aF0.32075471698113206
aI123
a(lp296
I4
aI5
aI8
aI9
aI10
aI11
aI12
aI13
aI14
aI15
aI16
aI17
aI18
aI19
aI20
aI21
aI23
aaa(lp297
I18
aI31
aI3
aF0.27777777777777779
aF0.36734693877551022
aI123
a(lp298
I3
aI4
aI5
aI6
aI7
aI11
aI12
aI13
aI14
aI15
aI16
aI17
aI18
aI19
aI20
aI21
aI22
aI23
aaa(lp299
I0
aI0
aI0
aI1
aI1
aI1
a(lp300
aa(lp301
I4
aI6
aI27
aF0.29032258064516125
aF0.40000000000000002
aI123
a(lp302
I27
aI29
aI40
aI42
aaa(lp303
I1
aI0
aI5
aF0.89534883720930236
aF1
aI123
a(lp304
I5
aaa(lp305
I25
aI28
aI4
aF0.36851415094339623
aF0.47169811320754718
aI123
a(lp306
I4
aI5
aI8
aI11
aI13
aI16
aI20
aI21
aI22
aI23
aI24
aI25
aI26
aI27
aI28
aI29
aI30
aI31
aI33
aI35
aI36
aI37
aI38
aI41
aI42
aaa(lp307
I0
aI2
aI0
aF0
aF0
aI123
a(lp308
aa(lp309
I1
aI0
aI8
aF0.74137931034482762
aF1
aI123
a(lp310
I8
aaa(lp311
I0
aI0
aI0
aI1
aI1
aI1
a(lp312
aa(lp313
I0
aI0
aI0
aI1
aI1
aI1
a(lp314
aa(lp315
I2
aI6
aI2
aF0.22297297297297297
aF0.25
aI123
a(lp316
I2
aI15
aaa(lp317
I0
aI0
aI0
aI1
aI1
aI1
a(lp318
aa(lp319
I0
aI0
aI0
aI1
aI1
aI1
a(lp320
aa(lp321
I0
aI0
aI0
aI1
aI1
aI1
a(lp322
aa(lp323
I0
aI0
aI0
aI1
aI1
aI1
a(lp324
aa(lp325
I1
aI0
aI26
aF0.75242718446601942
aF1
aI123
a(lp326
I26
aaa(lp327
I8
aI23
aI2
aF0.20401046207497819
aF0.25806451612903225
aI123
a(lp328
I2
aI15
aI16
aI17
aI18
aI19
aI20
aI21
aaa(lp329
I7
aI23
aI18
aF0.16400966183574878
aF0.23333333333333334
aI123
a(lp330
I18
aI19
aI20
aI21
aI22
aI23
aI24
aaa(lp331
I0
aI0
aI0
aI1
aI1
aI1
a(lp332
aa(lp333
I0
aI0
aI0
aI1
aI1
aI1
a(lp334
aa(lp335
I0
aI1
aI0
aF0
aF0
aI123
a(lp336
aa(lp337
I0
aI0
aI0
aI1
aI1
aI1
a(lp338
aa(lp339
I0
aI0
aI0
aI1
aI1
aI1
a(lp340
aa(lp341
I0
aI0
aI0
aI1
aI1
aI1
a(lp342
aa(lp343
I0
aI0
aI0
aI1
aI1
aI1
a(lp344
aa(lp345
I0
aI0
aI0
aI1
aI1
aI1
a(lp346
aa(lp347
I0
aI1
aI0
aF0
aF0
aI123
a(lp348
aa(lp349
I0
aI1
aI0
aF0
aF0
aI123
a(lp350
aa(lp351
I0
aI1
aI0
aF0
aF0
aI123
a(lp352
aa(lp353
I0
aI1
aI0
aF0
aF0
aI123
a(lp354
aa(lp355
I1
aI2
aI1
aF0.32812499999999994
aF0.33333333333333331
aI123
a(lp356
I1
aaa(lp357
I0
aI1
aI0
aF0
aF0
aI123
a(lp358
aa(lp359
I0
aI2
aI0
aF0
aF0
aI123
a(lp360
aa(lp361
I0
aI1
aI0
aF0
aF0
aI123
a(lp362
aa(lp363
I0
aI0
aI0
aI1
aI1
aI1
a(lp364
aa(lp365
I0
aI0
aI0
aI1
aI1
aI1
a(lp366
aa(lp367
I0
aI0
aI0
aI1
aI1
aI1
a(lp368
aa(lp369
I0
aI0
aI0
aI1
aI1
aI1
a(lp370
aa(lp371
I0
aI0
aI0
aI1
aI1
aI1
a(lp372
aa(lp373
I0
aI0
aI0
aI1
aI1
aI1
a(lp374
aa(lp375
I0
aI0
aI0
aI1
aI1
aI1
a(lp376
aa(lp377
I0
aI0
aI0
aI1
aI1
aI1
a(lp378
aa(lp379
I0
aI0
aI0
aI1
aI1
aI1
a(lp380
aa(lp381
I1
aI0
aI11
aF0.69999999999999996
aF1
aI123
a(lp382
I11
aaa(lp383
I0
aI0
aI0
aI1
aI1
aI1
a(lp384
aa(lp385
I0
aI1
aI0
aF0
aF0
aI123
a(lp386
aa(lp387
I0
aI0
aI0
aI1
aI1
aI1
a(lp388
aa(lp389
I0
aI0
aI0
aI1
aI1
aI1
a(lp390
aa(lp391
I47
aI27
aI1
aF0.53126747437092259
aF0.63513513513513509
aI123
a(lp392
I1
aI2
aI3
aI4
aI5
aI6
aI7
aI8
aI9
aI10
aI11
aI12
aI13
aI14
aI15
aI16
aI17
aI18
aI19
aI20
aI21
aI22
aI23
aI24
aI25
aI26
aI27
aI28
aI29
aI30
aI31
aI32
aI33
aI34
aI35
aI36
aI37
aI38
aI39
aI40
aI41
aI42
aI43
aI44
aI45
aI51
aI52
aaa(lp393
I25
aI49
aI1
aF0.28077063550036524
aF0.33783783783783783
aI123
a(lp394
I1
aI2
aI3
aI4
aI5
aI6
aI7
aI8
aI9
aI10
aI11
aI12
aI13
aI14
aI15
aI16
aI17
aI18
aI19
aI20
aI21
aI22
aI23
aI24
aI25
aaa(lp395
I24
aI50
aI1
aF0.27173119065010959
aF0.32432432432432434
aI123
a(lp396
I1
aI2
aI3
aI4
aI5
aI6
aI7
aI8
aI9
aI10
aI11
aI12
aI13
aI14
aI15
aI16
aI17
aI18
aI19
aI20
aI21
aI22
aI23
aI24
aaa(lp397
I24
aI50
aI1
aF0.27173119065010959
aF0.32432432432432434
aI123
a(lp398
I1
aI2
aI3
aI4
aI5
aI6
aI7
aI8
aI9
aI10
aI11
aI12
aI13
aI14
aI15
aI16
aI17
aI18
aI19
aI20
aI21
aI22
aI23
aI24
aaa(lp399
I0
aI0
aI0
aI1
aI1
aI1
a(lp400
aa(lp401
I0
aI0
aI0
aI1
aI1
aI1
a(lp402
aa(lp403
I2
aI0
aI3
aF0.86184210526315785
aF1
aI123
a(lp404
I3
aI19
aaa(lp405
I2
aI6
aI15
aF0.19407894736842105
aF0.25
aI123
a(lp406
I15
aI20
aaa(lp407
I0
aI0
aI0
aI1
aI1
aI1
a(lp408
aa(lp409
I0
aI0
aI0
aI1
aI1
aI1
a(lp410
aa(lp411
I0
aI0
aI0
aI1
aI1
aI1
a(lp412
aa(lp413
I0
aI1
aI0
aF0
aF0
aI123
a(lp414
aa(lp415
I0
aI0
aI0
aI1
aI1
aI1
a(lp416
aa(lp417
I0
aI0
aI0
aI1
aI1
aI1
a(lp418
aa(lp419
I0
aI0
aI0
aI1
aI1
aI1
a(lp420
aa(lp421
I25
aI47
aI1
aF0.28935185185185186
aF0.34722222222222221
aI123
a(lp422
I1
aI2
aI3
aI4
aI5
aI6
aI7
aI8
aI9
aI10
aI11
aI12
aI13
aI14
aI15
aI16
aI17
aI18
aI19
aI20
aI21
aI22
aI23
aI24
aI25
aaa(lp423
I8
aI7
aI1
aF0.42105263157894735
aF0.53333333333333333
aI123
a(lp424
I1
aI2
aI3
aI4
aI5
aI6
aI7
aI8
aaa(lp425
I10
aI24
aI1
aF0.25438596491228072
aF0.29411764705882354
aI123
a(lp426
I1
aI2
aI3
aI5
aI6
aI8
aI10
aI12
aI17
aI18
aaasS'env'
p427
S'paintcontrol'
p428
sS'action_size'
p429
I1
sS'hidden_size'
p430
S'8'
sS'ttf'
p431
(lp432
I0
aI0
aI0
aI0
aI0
aI0
aI0
aI0
aI0
aI0
aI22
aI1
aI0
aI0
aI0
aI0
aI0
aI0
aI0
aI0
aI0
aI0
aI0
aI0
aI0
aI0
aI0
aI0
aI0
aI0
aI0
aI49
aI3
aI4
aI4
aI3
aI0
aI27
aI5
aI4
aI0
aI8
aI0
aI0
aI2
aI0
aI0
aI0
aI0
aI26
aI2
aI18
aI0
aI0
aI0
aI0
aI0
aI0
aI0
aI0
aI0
aI0
aI0
aI0
aI1
aI0
aI0
aI0
aI0
aI0
aI0
aI0
aI0
aI0
aI0
aI0
aI0
aI11
aI0
aI0
aI0
aI0
aI1
aI1
aI1
aI1
aI0
aI0
aI3
aI15
aI0
aI0
aI0
aI0
aI0
aI0
aI0
aI1
aI1
aI1
asS'napfd'
p433
(lp434
I1
aI1
aF0
aF0
aI1
aI1
aF0
aF0
aI1
aF0
aF0.15889830508474576
aF0.32283950617283946
aF0
aF0
aI1
aI1
aF0
aF0
aI1
aI1
aI1
aI1
aF0
aF0
aI1
aI1
aI1
aI1
aI1
aF0
aF0
aF0.063352272727272743
aF0.57787610619469032
aF0.23415032679738562
aF0.2518259281801582
aF0.27777777777777779
aI1
aF0.29032258064516125
aF0.89534883720930236
aF0.36851415094339623
aF0
aF0.74137931034482762
aI1
aI1
aF0.22297297297297297
aI1
aI1
aI1
aI1
aF0.75242718446601942
aF0.20401046207497819
aF0.16400966183574878
aI1
aI1
aF0
aI1
aI1
aI1
aI1
aI1
aF0
aF0
aF0
aF0
aF0.32812499999999994
aF0
aF0
aF0
aI1
aI1
aI1
aI1
aI1
aI1
aI1
aI1
aI1
aF0.69999999999999996
aI1
aF0
aI1
aI1
aF0.53126747437092259
aF0.28077063550036524
aF0.27173119065010959
aF0.27173119065010959
aI1
aI1
aF0.86184210526315785
aF0.19407894736842105
aI1
aI1
aI1
aF0
aI1
aI1
aI1
aF0.28935185185185186
aF0.42105263157894735
aF0.25438596491228072
asS'rewardfun'
p435
S'tcfail'
p436
s.